(lp0
S'http://lishi.tianqi.com/acheng/index.html'
p1
aS'http://lishi.tianqi.com/anda/index.html'
p2
aS'http://lishi.tianqi.com/antu/index.html'
p3
aS'http://lishi.tianqi.com/anshan/index.html'
p4
aS'http://lishi.tianqi.com/aluqi/index.html'
p5
aS'http://lishi.tianqi.com/aohan/index.html'
p6
aS'http://lishi.tianqi.com/abaga/index.html'
p7
aS'http://lishi.tianqi.com/arongqi/index.html'
p8
aS'http://lishi.tianqi.com/aershan/index.html'
p9
aS'http://lishi.tianqi.com/azuoqi/index.html'
p10
aS'http://lishi.tianqi.com/ayouqi/index.html'
p11
aS'http://lishi.tianqi.com/anxin/index.html'
p12
aS'http://lishi.tianqi.com/anguo/index.html'
p13
aS'http://lishi.tianqi.com/anping/index.html'
p14
aS'http://lishi.tianqi.com/anze/index.html'
p15
aS'http://lishi.tianqi.com/ansai/index.html'
p16
aS'http://lishi.tianqi.com/ankang/index.html'
p17
aS'http://lishi.tianqi.com/anqiu/index.html'
p18
aS'http://lishi.tianqi.com/alaer/index.html'
p19
aS'http://lishi.tianqi.com/akesu/index.html'
p20
aS'http://lishi.tianqi.com/awati/index.html'
p21
aS'http://lishi.tianqi.com/aletai/index.html'
p22
aS'http://lishi.tianqi.com/atushi/index.html'
p23
aS'http://lishi.tianqi.com/aketao/index.html'
p24
aS'http://lishi.tianqi.com/aheqi/index.html'
p25
aS'http://lishi.tianqi.com/alashankou/index.html'
p26
aS'http://lishi.tianqi.com/angren/index.html'
p27
aS'http://lishi.tianqi.com/anduo/index.html'
p28
aS'http://lishi.tianqi.com/ali/index.html'
p29
aS'http://lishi.tianqi.com/anding/index.html'
p30
aS'http://lishi.tianqi.com/akesai/index.html'
p31
aS'http://lishi.tianqi.com/anyang/index.html'
p32
aS'http://lishi.tianqi.com/anlu/index.html'
p33
aS'http://lishi.tianqi.com/anji/index.html'
p34
aS'http://lishi.tianqi.com/anqing/index.html'
p35
aS'http://lishi.tianqi.com/anxi/index.html'
p36
aS'http://lishi.tianqi.com/anyi/index.html'
p37
aS'http://lishi.tianqi.com/anfu/index.html'
p38
aS'http://lishi.tianqi.com/anyuan/index.html'
p39
aS'http://lishi.tianqi.com/anyuan1/index.html'
p40
aS'http://lishi.tianqi.com/anren/index.html'
p41
aS'http://lishi.tianqi.com/anxiang/index.html'
p42
aS'http://lishi.tianqi.com/anhua/index.html'
p43
aS'http://lishi.tianqi.com/anshun/index.html'
p44
aS'http://lishi.tianqi.com/anlong/index.html'
p45
aS'http://lishi.tianqi.com/anxian/index.html'
p46
aS'http://lishi.tianqi.com/anyue/index.html'
p47
aS'http://lishi.tianqi.com/aba/index.html'
p48
aS'http://lishi.tianqi.com/anning/index.html'
p49
aS'http://lishi.tianqi.com/andu/index.html'
p50
aS'http://lishi.tianqi.com/aomen/index.html'
p51
aS'http://lishi.tianqi.com/beijing/index.html'
p52
aS'http://lishi.tianqi.com/baoshan/index.html'
p53
aS'http://lishi.tianqi.com/baodi/index.html'
p54
aS'http://lishi.tianqi.com/beichen/index.html'
p55
aS'http://lishi.tianqi.com/beibei/index.html'
p56
aS'http://lishi.tianqi.com/banan/index.html'
p57
aS'http://lishi.tianqi.com/bishan/index.html'
p58
aS'http://lishi.tianqi.com/binxian/index.html'
p59
aS'http://lishi.tianqi.com/bayan/index.html'
p60
aS'http://lishi.tianqi.com/baiquan/index.html'
p61
aS'http://lishi.tianqi.com/beian/index.html'
p62
aS'http://lishi.tianqi.com/boli/index.html'
p63
aS'http://lishi.tianqi.com/baoqing/index.html'
p64
aS'http://lishi.tianqi.com/baicheng/index.html'
p65
aS'http://lishi.tianqi.com/baishan/index.html'
p66
aS'http://lishi.tianqi.com/benxi/index.html'
p67
aS'http://lishi.tianqi.com/benxixian/index.html'
p68
aS'http://lishi.tianqi.com/beizhen/index.html'
p69
aS'http://lishi.tianqi.com/beipiao/index.html'
p70
aS'http://lishi.tianqi.com/baotou/index.html'
p71
aS'http://lishi.tianqi.com/baiyunebo/index.html'
p72
aS'http://lishi.tianqi.com/bayaertuhushuo/index.html'
p73
aS'http://lishi.tianqi.com/balinzuoqi/index.html'
p74
aS'http://lishi.tianqi.com/balinyouqi/index.html'
p75
aS'http://lishi.tianqi.com/balihan/index.html'
p76
aS'http://lishi.tianqi.com/baoguotu/index.html'
p77
aS'http://lishi.tianqi.com/boketu/index.html'
p78
aS'http://lishi.tianqi.com/baoding/index.html'
p79
aS'http://lishi.tianqi.com/boye/index.html'
p80
aS'http://lishi.tianqi.com/beishiqu/index.html'
p81
aS'http://lishi.tianqi.com/bazhou/index.html'
p82
aS'http://lishi.tianqi.com/botou/index.html'
p83
aS'http://lishi.tianqi.com/baixiang/index.html'
p84
aS'http://lishi.tianqi.com/beidaihe/index.html'
p85
aS'http://lishi.tianqi.com/bode/index.html'
p86
aS'http://lishi.tianqi.com/binxian1/index.html'
p87
aS'http://lishi.tianqi.com/baishui/index.html'
p88
aS'http://lishi.tianqi.com/baihe/index.html'
p89
aS'http://lishi.tianqi.com/baoji/index.html'
p90
aS'http://lishi.tianqi.com/boshan/index.html'
p91
aS'http://lishi.tianqi.com/binzhou/index.html'
p92
aS'http://lishi.tianqi.com/boxing/index.html'
p93
aS'http://lishi.tianqi.com/baiyanggou/index.html'
p94
aS'http://lishi.tianqi.com/baijiantan/index.html'
p95
aS'http://lishi.tianqi.com/bayinbuluke/index.html'
p96
aS'http://lishi.tianqi.com/bohu/index.html'
p97
aS'http://lishi.tianqi.com/baluntai/index.html'
p98
aS'http://lishi.tianqi.com/baicheng1/index.html'
p99
aS'http://lishi.tianqi.com/bachu/index.html'
p100
aS'http://lishi.tianqi.com/balikun/index.html'
p101
aS'http://lishi.tianqi.com/buerjin/index.html'
p102
aS'http://lishi.tianqi.com/bole/index.html'
p103
aS'http://lishi.tianqi.com/bailang/index.html'
p104
aS'http://lishi.tianqi.com/bomi/index.html'
p105
aS'http://lishi.tianqi.com/bianba/index.html'
p106
aS'http://lishi.tianqi.com/basu/index.html'
p107
aS'http://lishi.tianqi.com/bange/index.html'
p108
aS'http://lishi.tianqi.com/baqing/index.html'
p109
aS'http://lishi.tianqi.com/biru/index.html'
p110
aS'http://lishi.tianqi.com/banma/index.html'
p111
aS'http://lishi.tianqi.com/baiyin/index.html'
p112
aS'http://lishi.tianqi.com/baofeng/index.html'
p113
aS'http://lishi.tianqi.com/boai/index.html'
p114
aS'http://lishi.tianqi.com/biyang/index.html'
p115
aS'http://lishi.tianqi.com/beitangqu/index.html'
p116
aS'http://lishi.tianqi.com/baoying/index.html'
p117
aS'http://lishi.tianqi.com/binhai/index.html'
p118
aS'http://lishi.tianqi.com/baokang/index.html'
p119
aS'http://lishi.tianqi.com/badong/index.html'
p120
aS'http://lishi.tianqi.com/beilun/index.html'
p121
aS'http://lishi.tianqi.com/bengbu/index.html'
p122
aS'http://lishi.tianqi.com/bozhou2/index.html'
p123
aS'http://lishi.tianqi.com/baojing/index.html'
p124
aS'http://lishi.tianqi.com/baiyun/index.html'
p125
aS'http://lishi.tianqi.com/bijie/index.html'
p126
aS'http://lishi.tianqi.com/beichuan/index.html'
p127
aS'http://lishi.tianqi.com/bazhong/index.html'
p128
aS'http://lishi.tianqi.com/butuo/index.html'
p129
aS'http://lishi.tianqi.com/baoxing/index.html'
p130
aS'http://lishi.tianqi.com/baiyu/index.html'
p131
aS'http://lishi.tianqi.com/batang/index.html'
p132
aS'http://lishi.tianqi.com/boluo/index.html'
p133
aS'http://lishi.tianqi.com/baoanqu/index.html'
p134
aS'http://lishi.tianqi.com/binchuan/index.html'
p135
aS'http://lishi.tianqi.com/baoshan1/index.html'
p136
aS'http://lishi.tianqi.com/binyang/index.html'
p137
aS'http://lishi.tianqi.com/bobai/index.html'
p138
aS'http://lishi.tianqi.com/beiliu/index.html'
p139
aS'http://lishi.tianqi.com/baise/index.html'
p140
aS'http://lishi.tianqi.com/bama/index.html'
p141
aS'http://lishi.tianqi.com/beihai/index.html'
p142
aS'http://lishi.tianqi.com/baisha/index.html'
p143
aS'http://lishi.tianqi.com/baoting/index.html'
p144
aS'http://lishi.tianqi.com/chaoyang/index.html'
p145
aS'http://lishi.tianqi.com/changping/index.html'
p146
aS'http://lishi.tianqi.com/chongming/index.html'
p147
aS'http://lishi.tianqi.com/chongqing/index.html'
p148
aS'http://lishi.tianqi.com/changshou/index.html'
p149
aS'http://lishi.tianqi.com/chengkou/index.html'
p150
aS'http://lishi.tianqi.com/changchun/index.html'
p151
aS'http://lishi.tianqi.com/changling/index.html'
p152
aS'http://lishi.tianqi.com/changbai/index.html'
p153
aS'http://lishi.tianqi.com/changhai/index.html'
p154
aS'http://lishi.tianqi.com/changtu/index.html'
p155
aS'http://lishi.tianqi.com/chaoyang1/index.html'
p156
aS'http://lishi.tianqi.com/chayouqianqi/index.html'
p157
aS'http://lishi.tianqi.com/chayouzhongqi/index.html'
p158
aS'http://lishi.tianqi.com/chayouhouqi/index.html'
p159
aS'http://lishi.tianqi.com/chifeng/index.html'
p160
aS'http://lishi.tianqi.com/chenqi/index.html'
p161
aS'http://lishi.tianqi.com/changanqu/index.html'
p162
aS'http://lishi.tianqi.com/chicheng/index.html'
p163
aS'http://lishi.tianqi.com/chongli/index.html'
p164
aS'http://lishi.tianqi.com/chengde/index.html'
p165
aS'http://lishi.tianqi.com/chengdexian/index.html'
p166
aS'http://lishi.tianqi.com/caofeidian/index.html'
p167
aS'http://lishi.tianqi.com/cangzhou/index.html'
p168
aS'http://lishi.tianqi.com/cangxian/index.html'
p169
aS'http://lishi.tianqi.com/chengan/index.html'
p170
aS'http://lishi.tianqi.com/cixian/index.html'
p171
aS'http://lishi.tianqi.com/changli/index.html'
p172
aS'http://lishi.tianqi.com/changzhi/index.html'
p173
aS'http://lishi.tianqi.com/changan/index.html'
p174
aS'http://lishi.tianqi.com/chunhua/index.html'
p175
aS'http://lishi.tianqi.com/changwu/index.html'
p176
aS'http://lishi.tianqi.com/chengcheng/index.html'
p177
aS'http://lishi.tianqi.com/chenggu/index.html'
p178
aS'http://lishi.tianqi.com/chencang/index.html'
p179
aS'http://lishi.tianqi.com/changqing/index.html'
p180
aS'http://lishi.tianqi.com/chengyangqu/index.html'
p181
aS'http://lishi.tianqi.com/changdao/index.html'
p182
aS'http://lishi.tianqi.com/changle/index.html'
p183
aS'http://lishi.tianqi.com/changyi/index.html'
p184
aS'http://lishi.tianqi.com/cangshan/index.html'
p185
aS'http://lishi.tianqi.com/caoxian/index.html'
p186
aS'http://lishi.tianqi.com/chengwu/index.html'
p187
aS'http://lishi.tianqi.com/chengshantou/index.html'
p188
aS'http://lishi.tianqi.com/chiping/index.html'
p189
aS'http://lishi.tianqi.com/changji/index.html'
p190
aS'http://lishi.tianqi.com/caijiahu/index.html'
p191
aS'http://lishi.tianqi.com/chabuchaer/index.html'
p192
aS'http://lishi.tianqi.com/cele/index.html'
p193
aS'http://lishi.tianqi.com/cuona/index.html'
p194
aS'http://lishi.tianqi.com/cuomei/index.html'
p195
aS'http://lishi.tianqi.com/chayu/index.html'
p196
aS'http://lishi.tianqi.com/changdu/index.html'
p197
aS'http://lishi.tianqi.com/chaya/index.html'
p198
aS'http://lishi.tianqi.com/cuoqin/index.html'
p199
aS'http://lishi.tianqi.com/chengbeiqu/index.html'
p200
aS'http://lishi.tianqi.com/chenduo/index.html'
p201
aS'http://lishi.tianqi.com/chongxin/index.html'
p202
aS'http://lishi.tianqi.com/chengxian/index.html'
p203
aS'http://lishi.tianqi.com/changyuan/index.html'
p204
aS'http://lishi.tianqi.com/changge/index.html'
p205
aS'http://lishi.tianqi.com/chuanhuiqu/index.html'
p206
aS'http://lishi.tianqi.com/changshu/index.html'
p207
aS'http://lishi.tianqi.com/chuzhou/index.html'
p208
aS'http://lishi.tianqi.com/changzhou/index.html'
p209
aS'http://lishi.tianqi.com/caidian/index.html'
p210
aS'http://lishi.tianqi.com/chibi/index.html'
p211
aS'http://lishi.tianqi.com/chongyang/index.html'
p212
aS'http://lishi.tianqi.com/changyang/index.html'
p213
aS'http://lishi.tianqi.com/chunan/index.html'
p214
aS'http://lishi.tianqi.com/changxing/index.html'
p215
aS'http://lishi.tianqi.com/cixi/index.html'
p216
aS'http://lishi.tianqi.com/cangnan/index.html'
p217
aS'http://lishi.tianqi.com/changshan/index.html'
p218
aS'http://lishi.tianqi.com/changfeng/index.html'
p219
aS'http://lishi.tianqi.com/chuzhou1/index.html'
p220
aS'http://lishi.tianqi.com/chaohu/index.html'
p221
aS'http://lishi.tianqi.com/chizhou/index.html'
p222
aS'http://lishi.tianqi.com/changle1/index.html'
p223
aS'http://lishi.tianqi.com/chengxiang/index.html'
p224
aS'http://lishi.tianqi.com/chongwu/index.html'
p225
aS'http://lishi.tianqi.com/changtai/index.html'
p226
aS'http://lishi.tianqi.com/changting/index.html'
p227
aS'http://lishi.tianqi.com/chongren/index.html'
p228
aS'http://lishi.tianqi.com/chongyi/index.html'
p229
aS'http://lishi.tianqi.com/changsha/index.html'
p230
aS'http://lishi.tianqi.com/chaling/index.html'
p231
aS'http://lishi.tianqi.com/changning/index.html'
p232
aS'http://lishi.tianqi.com/chenzhou/index.html'
p233
aS'http://lishi.tianqi.com/changde/index.html'
p234
aS'http://lishi.tianqi.com/chengbu/index.html'
p235
aS'http://lishi.tianqi.com/cili/index.html'
p236
aS'http://lishi.tianqi.com/chenxi/index.html'
p237
aS'http://lishi.tianqi.com/chishui/index.html'
p238
aS'http://lishi.tianqi.com/changshun/index.html'
p239
aS'http://lishi.tianqi.com/cengong/index.html'
p240
aS'http://lishi.tianqi.com/congjiang/index.html'
p241
aS'http://lishi.tianqi.com/ceheng/index.html'
p242
aS'http://lishi.tianqi.com/chengdu/index.html'
p243
aS'http://lishi.tianqi.com/chongzhou/index.html'
p244
aS'http://lishi.tianqi.com/changning1/index.html'
p245
aS'http://lishi.tianqi.com/cangxi/index.html'
p246
aS'http://lishi.tianqi.com/conghua/index.html'
p247
aS'http://lishi.tianqi.com/chaoyang2/index.html'
p248
aS'http://lishi.tianqi.com/chenghai/index.html'
p249
aS'http://lishi.tianqi.com/chikan/index.html'
p250
aS'http://lishi.tianqi.com/chaozhou/index.html'
p251
aS'http://lishi.tianqi.com/chaoan/index.html'
p252
aS'http://lishi.tianqi.com/chenggong/index.html'
p253
aS'http://lishi.tianqi.com/changning2/index.html'
p254
aS'http://lishi.tianqi.com/chengjiang/index.html'
p255
aS'http://lishi.tianqi.com/chuxiong/index.html'
p256
aS'http://lishi.tianqi.com/cangyuan/index.html'
p257
aS'http://lishi.tianqi.com/chongzuo/index.html'
p258
aS'http://lishi.tianqi.com/cangwu/index.html'
p259
aS'http://lishi.tianqi.com/cenxi/index.html'
p260
aS'http://lishi.tianqi.com/changzhou1/index.html'
p261
aS'http://lishi.tianqi.com/chengmai/index.html'
p262
aS'http://lishi.tianqi.com/changjiang/index.html'
p263
aS'http://lishi.tianqi.com/chaoyangqu/index.html'
p264
aS'http://lishi.tianqi.com/daxing/index.html'
p265
aS'http://lishi.tianqi.com/dongli/index.html'
p266
aS'http://lishi.tianqi.com/dagang/index.html'
p267
aS'http://lishi.tianqi.com/dianjiang/index.html'
p268
aS'http://lishi.tianqi.com/dazu/index.html'
p269
aS'http://lishi.tianqi.com/dongning/index.html'
p270
aS'http://lishi.tianqi.com/daxinganling/index.html'
p271
aS'http://lishi.tianqi.com/daqing/index.html'
p272
aS'http://lishi.tianqi.com/duerbote/index.html'
p273
aS'http://lishi.tianqi.com/dorbod/index.html'
p274
aS'http://lishi.tianqi.com/dehui/index.html'
p275
aS'http://lishi.tianqi.com/dunhua/index.html'
p276
aS'http://lishi.tianqi.com/daan/index.html'
p277
aS'http://lishi.tianqi.com/dongfeng/index.html'
p278
aS'http://lishi.tianqi.com/dongliao/index.html'
p279
aS'http://lishi.tianqi.com/donggang/index.html'
p280
aS'http://lishi.tianqi.com/dalian/index.html'
p281
aS'http://lishi.tianqi.com/dandong/index.html'
p282
aS'http://lishi.tianqi.com/donggang1/index.html'
p283
aS'http://lishi.tianqi.com/dashiqiao/index.html'
p284
aS'http://lishi.tianqi.com/dengta/index.html'
p285
aS'http://lishi.tianqi.com/diaobingshan/index.html'
p286
aS'http://lishi.tianqi.com/dawa/index.html'
p287
aS'http://lishi.tianqi.com/damaoqi/index.html'
p288
aS'http://lishi.tianqi.com/dalate/index.html'
p289
aS'http://lishi.tianqi.com/dongsheng/index.html'
p290
aS'http://lishi.tianqi.com/dengkou/index.html'
p291
aS'http://lishi.tianqi.com/dashetai/index.html'
p292
aS'http://lishi.tianqi.com/dongwuqi/index.html'
p293
aS'http://lishi.tianqi.com/duolun/index.html'
p294
aS'http://lishi.tianqi.com/dingzhou/index.html'
p295
aS'http://lishi.tianqi.com/dingxing/index.html'
p296
aS'http://lishi.tianqi.com/dacheng/index.html'
p297
aS'http://lishi.tianqi.com/dachang/index.html'
p298
aS'http://lishi.tianqi.com/dongguang/index.html'
p299
aS'http://lishi.tianqi.com/daming/index.html'
p300
aS'http://lishi.tianqi.com/datong/index.html'
p301
aS'http://lishi.tianqi.com/datongxian/index.html'
p302
aS'http://lishi.tianqi.com/daning/index.html'
p303
aS'http://lishi.tianqi.com/dingxiang/index.html'
p304
aS'http://lishi.tianqi.com/daixian/index.html'
p305
aS'http://lishi.tianqi.com/dingbian/index.html'
p306
aS'http://lishi.tianqi.com/dali/index.html'
p307
aS'http://lishi.tianqi.com/danfeng/index.html'
p308
aS'http://lishi.tianqi.com/dezhou/index.html'
p309
aS'http://lishi.tianqi.com/dongping/index.html'
p310
aS'http://lishi.tianqi.com/dongming/index.html'
p311
aS'http://lishi.tianqi.com/dingtao/index.html'
p312
aS'http://lishi.tianqi.com/dongying/index.html'
p313
aS'http://lishi.tianqi.com/donge/index.html'
p314
aS'http://lishi.tianqi.com/dabancheng/index.html'
p315
aS'http://lishi.tianqi.com/dangxiong/index.html'
p316
aS'http://lishi.tianqi.com/duilongdeqing/index.html'
p317
aS'http://lishi.tianqi.com/dazi/index.html'
p318
aS'http://lishi.tianqi.com/dingri/index.html'
p319
aS'http://lishi.tianqi.com/dingjie/index.html'
p320
aS'http://lishi.tianqi.com/dingqing/index.html'
p321
aS'http://lishi.tianqi.com/datong1/index.html'
p322
aS'http://lishi.tianqi.com/dari/index.html'
p323
aS'http://lishi.tianqi.com/duoxian1/index.html'
p324
aS'http://lishi.tianqi.com/dachaidan/index.html'
p325
aS'http://lishi.tianqi.com/delingha/index.html'
p326
aS'http://lishi.tianqi.com/dulan/index.html'
p327
aS'http://lishi.tianqi.com/dingxi/index.html'
p328
aS'http://lishi.tianqi.com/dunhuang/index.html'
p329
aS'http://lishi.tianqi.com/dangchang/index.html'
p330
aS'http://lishi.tianqi.com/dongxiang/index.html'
p331
aS'http://lishi.tianqi.com/diebu/index.html'
p332
aS'http://lishi.tianqi.com/dengfeng/index.html'
p333
aS'http://lishi.tianqi.com/dengzhou/index.html'
p334
aS'http://lishi.tianqi.com/dancheng/index.html'
p335
aS'http://lishi.tianqi.com/danyang/index.html'
p336
aS'http://lishi.tianqi.com/dantu/index.html'
p337
aS'http://lishi.tianqi.com/dongtai/index.html'
p338
aS'http://lishi.tianqi.com/dafeng/index.html'
p339
aS'http://lishi.tianqi.com/donghai/index.html'
p340
aS'http://lishi.tianqi.com/dongxihu/index.html'
p341
aS'http://lishi.tianqi.com/dawu/index.html'
p342
aS'http://lishi.tianqi.com/daye/index.html'
p343
aS'http://lishi.tianqi.com/dangyang/index.html'
p344
aS'http://lishi.tianqi.com/danjiangkou/index.html'
p345
aS'http://lishi.tianqi.com/duodao/index.html'
p346
aS'http://lishi.tianqi.com/deqing/index.html'
p347
aS'http://lishi.tianqi.com/dongtou/index.html'
p348
aS'http://lishi.tianqi.com/dongyang/index.html'
p349
aS'http://lishi.tianqi.com/daishan/index.html'
p350
aS'http://lishi.tianqi.com/dinghai/index.html'
p351
aS'http://lishi.tianqi.com/dangtu/index.html'
p352
aS'http://lishi.tianqi.com/dangshan/index.html'
p353
aS'http://lishi.tianqi.com/dingyuan/index.html'
p354
aS'http://lishi.tianqi.com/dongzhi/index.html'
p355
aS'http://lishi.tianqi.com/dehua/index.html'
p356
aS'http://lishi.tianqi.com/dongshan/index.html'
p357
aS'http://lishi.tianqi.com/datian/index.html'
p358
aS'http://lishi.tianqi.com/diaoyudao/index.html'
p359
aS'http://lishi.tianqi.com/donghuqu/index.html'
p360
aS'http://lishi.tianqi.com/dean/index.html'
p361
aS'http://lishi.tianqi.com/duchang/index.html'
p362
aS'http://lishi.tianqi.com/dexing/index.html'
p363
aS'http://lishi.tianqi.com/dongxiang1/index.html'
p364
aS'http://lishi.tianqi.com/dayu/index.html'
p365
aS'http://lishi.tianqi.com/dingnan/index.html'
p366
aS'http://lishi.tianqi.com/dongkou/index.html'
p367
aS'http://lishi.tianqi.com/dongan/index.html'
p368
aS'http://lishi.tianqi.com/daoxian/index.html'
p369
aS'http://lishi.tianqi.com/daozhen/index.html'
p370
aS'http://lishi.tianqi.com/duyun/index.html'
p371
aS'http://lishi.tianqi.com/dushan/index.html'
p372
aS'http://lishi.tianqi.com/danzhai/index.html'
p373
aS'http://lishi.tianqi.com/dejiang/index.html'
p374
aS'http://lishi.tianqi.com/dafang/index.html'
p375
aS'http://lishi.tianqi.com/dayi/index.html'
p376
aS'http://lishi.tianqi.com/dujiangyan/index.html'
p377
aS'http://lishi.tianqi.com/dazhou/index.html'
p378
aS'http://lishi.tianqi.com/dazhu/index.html'
p379
aS'http://lishi.tianqi.com/dachuan/index.html'
p380
aS'http://lishi.tianqi.com/daxian/index.html'
p381
aS'http://lishi.tianqi.com/dongxing/index.html'
p382
aS'http://lishi.tianqi.com/danleng/index.html'
p383
aS'http://lishi.tianqi.com/dechang/index.html'
p384
aS'http://lishi.tianqi.com/danba/index.html'
p385
aS'http://lishi.tianqi.com/daofu/index.html'
p386
aS'http://lishi.tianqi.com/dege/index.html'
p387
aS'http://lishi.tianqi.com/daocheng/index.html'
p388
aS'http://lishi.tianqi.com/derong/index.html'
p389
aS'http://lishi.tianqi.com/deyang/index.html'
p390
aS'http://lishi.tianqi.com/dabu/index.html'
p391
aS'http://lishi.tianqi.com/doumen/index.html'
p392
aS'http://lishi.tianqi.com/deqing1/index.html'
p393
aS'http://lishi.tianqi.com/dongyuan/index.html'
p394
aS'http://lishi.tianqi.com/dongguan/index.html'
p395
aS'http://lishi.tianqi.com/dianbai/index.html'
p396
aS'http://lishi.tianqi.com/dongchuan/index.html'
p397
aS'http://lishi.tianqi.com/dali1/index.html'
p398
aS'http://lishi.tianqi.com/dayao/index.html'
p399
aS'http://lishi.tianqi.com/daguan/index.html'
p400
aS'http://lishi.tianqi.com/deqin/index.html'
p401
aS'http://lishi.tianqi.com/dehong/index.html'
p402
aS'http://lishi.tianqi.com/daxin/index.html'
p403
aS'http://lishi.tianqi.com/debao/index.html'
p404
aS'http://lishi.tianqi.com/donglan/index.html'
p405
aS'http://lishi.tianqi.com/dahua/index.html'
p406
aS'http://lishi.tianqi.com/dongxing1/index.html'
p407
aS'http://lishi.tianqi.com/dongfang/index.html'
p408
aS'http://lishi.tianqi.com/danzhou/index.html'
p409
aS'http://lishi.tianqi.com/dingan/index.html'
p410
aS'http://lishi.tianqi.com/dangzidao/index.html'
p411
aS'http://lishi.tianqi.com/eerduosi/index.html'
p412
aS'http://lishi.tianqi.com/eqianqi/index.html'
p413
aS'http://lishi.tianqi.com/etuoke/index.html'
p414
aS'http://lishi.tianqi.com/erlianhaote/index.html'
p415
aS'http://lishi.tianqi.com/elunchunqi/index.html'
p416
aS'http://lishi.tianqi.com/ewenkeqi/index.html'
p417
aS'http://lishi.tianqi.com/eerguna/index.html'
p418
aS'http://lishi.tianqi.com/ejina/index.html'
p419
aS'http://lishi.tianqi.com/emin/index.html'
p420
aS'http://lishi.tianqi.com/ezhou/index.html'
p421
aS'http://lishi.tianqi.com/enshi/index.html'
p422
aS'http://lishi.tianqi.com/ebian/index.html'
p423
aS'http://lishi.tianqi.com/emei/index.html'
p424
aS'http://lishi.tianqi.com/emeishan/index.html'
p425
aS'http://lishi.tianqi.com/enping/index.html'
p426
aS'http://lishi.tianqi.com/eryuan/index.html'
p427
aS'http://lishi.tianqi.com/eshan/index.html'
p428
aS'http://lishi.tianqi.com/fengtai/index.html'
p429
aS'http://lishi.tianqi.com/fangshan/index.html'
p430
aS'http://lishi.tianqi.com/fengxian/index.html'
p431
aS'http://lishi.tianqi.com/fuling/index.html'
p432
aS'http://lishi.tianqi.com/fengjie/index.html'
p433
aS'http://lishi.tianqi.com/fengdu/index.html'
p434
aS'http://lishi.tianqi.com/fangzheng/index.html'
p435
aS'http://lishi.tianqi.com/fuyu/index.html'
p436
aS'http://lishi.tianqi.com/fuyuan/index.html'
p437
aS'http://lishi.tianqi.com/fujin/index.html'
p438
aS'http://lishi.tianqi.com/fuyu1/index.html'
p439
aS'http://lishi.tianqi.com/fusong/index.html'
p440
aS'http://lishi.tianqi.com/faku/index.html'
p441
aS'http://lishi.tianqi.com/fushun/index.html'
p442
aS'http://lishi.tianqi.com/fengcheng/index.html'
p443
aS'http://lishi.tianqi.com/fuxin/index.html'
p444
aS'http://lishi.tianqi.com/fengzhen/index.html'
p445
aS'http://lishi.tianqi.com/fuping/index.html'
p446
aS'http://lishi.tianqi.com/fengning/index.html'
p447
aS'http://lishi.tianqi.com/fengnan/index.html'
p448
aS'http://lishi.tianqi.com/fengrun/index.html'
p449
aS'http://lishi.tianqi.com/fucheng/index.html'
p450
aS'http://lishi.tianqi.com/fengfeng/index.html'
p451
aS'http://lishi.tianqi.com/feixiang/index.html'
p452
aS'http://lishi.tianqi.com/fuxingqu/index.html'
p453
aS'http://lishi.tianqi.com/funing/index.html'
p454
aS'http://lishi.tianqi.com/fenxi/index.html'
p455
aS'http://lishi.tianqi.com/fushan/index.html'
p456
aS'http://lishi.tianqi.com/fanshi/index.html'
p457
aS'http://lishi.tianqi.com/fangshan1/index.html'
p458
aS'http://lishi.tianqi.com/fenyang/index.html'
p459
aS'http://lishi.tianqi.com/fuxian/index.html'
p460
aS'http://lishi.tianqi.com/fugu/index.html'
p461
aS'http://lishi.tianqi.com/fuping1/index.html'
p462
aS'http://lishi.tianqi.com/fuoping/index.html'
p463
aS'http://lishi.tianqi.com/fengxiang/index.html'
p464
aS'http://lishi.tianqi.com/fufeng/index.html'
p465
aS'http://lishi.tianqi.com/fengxian1/index.html'
p466
aS'http://lishi.tianqi.com/fushan1/index.html'
p467
aS'http://lishi.tianqi.com/feicheng/index.html'
p468
aS'http://lishi.tianqi.com/feixian/index.html'
p469
aS'http://lishi.tianqi.com/fukang/index.html'
p470
aS'http://lishi.tianqi.com/fuhai/index.html'
p471
aS'http://lishi.tianqi.com/fuyun/index.html'
p472
aS'http://lishi.tianqi.com/fengqiu/index.html'
p473
aS'http://lishi.tianqi.com/fangcheng/index.html'
p474
aS'http://lishi.tianqi.com/fanxian/index.html'
p475
aS'http://lishi.tianqi.com/fugou/index.html'
p476
aS'http://lishi.tianqi.com/funing1/index.html'
p477
aS'http://lishi.tianqi.com/fengxian2/index.html'
p478
aS'http://lishi.tianqi.com/fangxian/index.html'
p479
aS'http://lishi.tianqi.com/fuyang/index.html'
p480
aS'http://lishi.tianqi.com/fenghua/index.html'
p481
aS'http://lishi.tianqi.com/feidong/index.html'
p482
aS'http://lishi.tianqi.com/feixi/index.html'
p483
aS'http://lishi.tianqi.com/fanchang/index.html'
p484
aS'http://lishi.tianqi.com/fengtai1/index.html'
p485
aS'http://lishi.tianqi.com/fuyang1/index.html'
p486
aS'http://lishi.tianqi.com/funan/index.html'
p487
aS'http://lishi.tianqi.com/fengyang/index.html'
p488
aS'http://lishi.tianqi.com/fuzhou/index.html'
p489
aS'http://lishi.tianqi.com/fuqing/index.html'
p490
aS'http://lishi.tianqi.com/fuan/index.html'
p491
aS'http://lishi.tianqi.com/fuding/index.html'
p492
aS'http://lishi.tianqi.com/fuzhou1/index.html'
p493
aS'http://lishi.tianqi.com/fengxin/index.html'
p494
aS'http://lishi.tianqi.com/fengcheng1/index.html'
p495
aS'http://lishi.tianqi.com/fuliang/index.html'
p496
aS'http://lishi.tianqi.com/fenyi/index.html'
p497
aS'http://lishi.tianqi.com/fenghuang/index.html'
p498
aS'http://lishi.tianqi.com/fenggang/index.html'
p499
aS'http://lishi.tianqi.com/fuquan/index.html'
p500
aS'http://lishi.tianqi.com/fushun1/index.html'
p501
aS'http://lishi.tianqi.com/fengshun/index.html'
p502
aS'http://lishi.tianqi.com/foshan/index.html'
p503
aS'http://lishi.tianqi.com/fengkai/index.html'
p504
aS'http://lishi.tianqi.com/fogang/index.html'
p505
aS'http://lishi.tianqi.com/fumin/index.html'
p506
aS'http://lishi.tianqi.com/fuyuan1/index.html'
p507
aS'http://lishi.tianqi.com/funing2/index.html'
p508
aS'http://lishi.tianqi.com/fengqing/index.html'
p509
aS'http://lishi.tianqi.com/fugong/index.html'
p510
aS'http://lishi.tianqi.com/fusui/index.html'
p511
aS'http://lishi.tianqi.com/fuchuan/index.html'
p512
aS'http://lishi.tianqi.com/fengshan/index.html'
p513
aS'http://lishi.tianqi.com/fangchenggang/index.html'
p514
aS'http://lishi.tianqi.com/fangcheng1/index.html'
p515
aS'http://lishi.tianqi.com/gannan1/index.html'
p516
aS'http://lishi.tianqi.com/gongzhuling/index.html'
p517
aS'http://lishi.tianqi.com/gaizhou/index.html'
p518
aS'http://lishi.tianqi.com/gongchangling/index.html'
p519
aS'http://lishi.tianqi.com/guyang/index.html'
p520
aS'http://lishi.tianqi.com/gaoliban/index.html'
p521
aS'http://lishi.tianqi.com/gangzi/index.html'
p522
aS'http://lishi.tianqi.com/genhe/index.html'
p523
aS'http://lishi.tianqi.com/guanzihu/index.html'
p524
aS'http://lishi.tianqi.com/gaoyi/index.html'
p525
aS'http://lishi.tianqi.com/gaocheng/index.html'
p526
aS'http://lishi.tianqi.com/gaoyang/index.html'
p527
aS'http://lishi.tianqi.com/gaobeidian/index.html'
p528
aS'http://lishi.tianqi.com/guyuan/index.html'
p529
aS'http://lishi.tianqi.com/guyequ/index.html'
p530
aS'http://lishi.tianqi.com/guan/index.html'
p531
aS'http://lishi.tianqi.com/gucheng/index.html'
p532
aS'http://lishi.tianqi.com/guangzong/index.html'
p533
aS'http://lishi.tianqi.com/guangping/index.html'
p534
aS'http://lishi.tianqi.com/guantao/index.html'
p535
aS'http://lishi.tianqi.com/gujiao/index.html'
p536
aS'http://lishi.tianqi.com/guangling/index.html'
p537
aS'http://lishi.tianqi.com/gaoping/index.html'
p538
aS'http://lishi.tianqi.com/guxian/index.html'
p539
aS'http://lishi.tianqi.com/gaoling/index.html'
p540
aS'http://lishi.tianqi.com/ganquan/index.html'
p541
aS'http://lishi.tianqi.com/gaoqing/index.html'
p542
aS'http://lishi.tianqi.com/gaomi/index.html'
p543
aS'http://lishi.tianqi.com/guangrao/index.html'
p544
aS'http://lishi.tianqi.com/guanxian/index.html'
p545
aS'http://lishi.tianqi.com/gaotang/index.html'
p546
aS'http://lishi.tianqi.com/gongliu/index.html'
p547
aS'http://lishi.tianqi.com/gangba/index.html'
p548
aS'http://lishi.tianqi.com/gongga/index.html'
p549
aS'http://lishi.tianqi.com/gongbujiangda/index.html'
p550
aS'http://lishi.tianqi.com/gongjue/index.html'
p551
aS'http://lishi.tianqi.com/gaize/index.html'
p552
aS'http://lishi.tianqi.com/gaer/index.html'
p553
aS'http://lishi.tianqi.com/geji/index.html'
p554
aS'http://lishi.tianqi.com/guide/index.html'
p555
aS'http://lishi.tianqi.com/guinan/index.html'
p556
aS'http://lishi.tianqi.com/gonghe/index.html'
p557
aS'http://lishi.tianqi.com/guoluo/index.html'
p558
aS'http://lishi.tianqi.com/gande/index.html'
p559
aS'http://lishi.tianqi.com/gangcha/index.html'
p560
aS'http://lishi.tianqi.com/geermu/index.html'
p561
aS'http://lishi.tianqi.com/gaolan/index.html'
p562
aS'http://lishi.tianqi.com/gulang/index.html'
p563
aS'http://lishi.tianqi.com/gaotai/index.html'
p564
aS'http://lishi.tianqi.com/guazhou/index.html'
p565
aS'http://lishi.tianqi.com/gangu/index.html'
p566
aS'http://lishi.tianqi.com/guanghe/index.html'
p567
aS'http://lishi.tianqi.com/guyuan1/index.html'
p568
aS'http://lishi.tianqi.com/gongyi/index.html'
p569
aS'http://lishi.tianqi.com/guangshan/index.html'
p570
aS'http://lishi.tianqi.com/gushi/index.html'
p571
aS'http://lishi.tianqi.com/gaochun/index.html'
p572
aS'http://lishi.tianqi.com/gangzhaqu/index.html'
p573
aS'http://lishi.tianqi.com/gaoyou/index.html'
p574
aS'http://lishi.tianqi.com/ganyu/index.html'
p575
aS'http://lishi.tianqi.com/guanyun/index.html'
p576
aS'http://lishi.tianqi.com/guannan/index.html'
p577
aS'http://lishi.tianqi.com/gucheng1/index.html'
p578
aS'http://lishi.tianqi.com/gongan/index.html'
p579
aS'http://lishi.tianqi.com/guangshui/index.html'
p580
aS'http://lishi.tianqi.com/guzhen/index.html'
p581
aS'http://lishi.tianqi.com/guoyang/index.html'
p582
aS'http://lishi.tianqi.com/guangde/index.html'
p583
aS'http://lishi.tianqi.com/gutian/index.html'
p584
aS'http://lishi.tianqi.com/guangze/index.html'
p585
aS'http://lishi.tianqi.com/gongqingcheng/index.html'
p586
aS'http://lishi.tianqi.com/guangfeng/index.html'
p587
aS'http://lishi.tianqi.com/guangchang/index.html'
p588
aS'http://lishi.tianqi.com/gaoan/index.html'
p589
aS'http://lishi.tianqi.com/ganzhou/index.html'
p590
aS'http://lishi.tianqi.com/ganxian/index.html'
p591
aS'http://lishi.tianqi.com/guixi/index.html'
p592
aS'http://lishi.tianqi.com/guiyang/index.html'
p593
aS'http://lishi.tianqi.com/guidong/index.html'
p594
aS'http://lishi.tianqi.com/guzhang/index.html'
p595
aS'http://lishi.tianqi.com/guiyang1/index.html'
p596
aS'http://lishi.tianqi.com/guanling/index.html'
p597
aS'http://lishi.tianqi.com/guiding/index.html'
p598
aS'http://lishi.tianqi.com/guangan/index.html'
p599
aS'http://lishi.tianqi.com/gulin/index.html'
p600
aS'http://lishi.tianqi.com/gaoxian1/index.html'
p601
aS'http://lishi.tianqi.com/gongxian/index.html'
p602
aS'http://lishi.tianqi.com/ganluo/index.html'
p603
aS'http://lishi.tianqi.com/ganzi/index.html'
p604
aS'http://lishi.tianqi.com/guanghan/index.html'
p605
aS'http://lishi.tianqi.com/guangyuan/index.html'
p606
aS'http://lishi.tianqi.com/guangzhou/index.html'
p607
aS'http://lishi.tianqi.com/gaoming/index.html'
p608
aS'http://lishi.tianqi.com/guangning/index.html'
p609
aS'http://lishi.tianqi.com/gaoyao/index.html'
p610
aS'http://lishi.tianqi.com/gaozhou/index.html'
p611
aS'http://lishi.tianqi.com/gejiu/index.html'
p612
aS'http://lishi.tianqi.com/guangnan/index.html'
p613
aS'http://lishi.tianqi.com/gengma/index.html'
p614
aS'http://lishi.tianqi.com/gongshan/index.html'
p615
aS'http://lishi.tianqi.com/guilin/index.html'
p616
aS'http://lishi.tianqi.com/guanyang/index.html'
p617
aS'http://lishi.tianqi.com/gongcheng/index.html'
p618
aS'http://lishi.tianqi.com/guigang/index.html'
p619
aS'http://lishi.tianqi.com/guiping/index.html'
p620
aS'http://lishi.tianqi.com/gangbeiqu/index.html'
p621
aS'http://lishi.tianqi.com/gaoxiong/index.html'
p622
aS'http://lishi.tianqi.com/haidian/index.html'
p623
aS'http://lishi.tianqi.com/huairou/index.html'
p624
aS'http://lishi.tianqi.com/hangu/index.html'
p625
aS'http://lishi.tianqi.com/hechuan/index.html'
p626
aS'http://lishi.tianqi.com/haerbin/index.html'
p627
aS'http://lishi.tianqi.com/hulan/index.html'
p628
aS'http://lishi.tianqi.com/hailin/index.html'
p629
aS'http://lishi.tianqi.com/huachuan/index.html'
p630
aS'http://lishi.tianqi.com/huanan/index.html'
p631
aS'http://lishi.tianqi.com/hailun/index.html'
p632
aS'http://lishi.tianqi.com/heihe/index.html'
p633
aS'http://lishi.tianqi.com/huma/index.html'
p634
aS'http://lishi.tianqi.com/huzhong/index.html'
p635
aS'http://lishi.tianqi.com/hongxingqu/index.html'
p636
aS'http://lishi.tianqi.com/hulin/index.html'
p637
aS'http://lishi.tianqi.com/hegang/index.html'
p638
aS'http://lishi.tianqi.com/huadian/index.html'
p639
aS'http://lishi.tianqi.com/helong/index.html'
p640
aS'http://lishi.tianqi.com/hunchun/index.html'
p641
aS'http://lishi.tianqi.com/huinan/index.html'
p642
aS'http://lishi.tianqi.com/haicheng/index.html'
p643
aS'http://lishi.tianqi.com/huanren/index.html'
p644
aS'http://lishi.tianqi.com/heishan/index.html'
p645
aS'http://lishi.tianqi.com/huludao/index.html'
p646
aS'http://lishi.tianqi.com/huhehaote/index.html'
p647
aS'http://lishi.tianqi.com/helin/index.html'
p648
aS'http://lishi.tianqi.com/hushijiaoqu/index.html'
p649
aS'http://lishi.tianqi.com/huade/index.html'
p650
aS'http://lishi.tianqi.com/haoertu/index.html'
p651
aS'http://lishi.tianqi.com/henan/index.html'
p652
aS'http://lishi.tianqi.com/hangjinqi/index.html'
p653
aS'http://lishi.tianqi.com/hailisu/index.html'
p654
aS'http://lishi.tianqi.com/hangjinhouqi/index.html'
p655
aS'http://lishi.tianqi.com/hailaer/index.html'
p656
aS'http://lishi.tianqi.com/huerle/index.html'
p657
aS'http://lishi.tianqi.com/huolinguole/index.html'
p658
aS'http://lishi.tianqi.com/huaian/index.html'
p659
aS'http://lishi.tianqi.com/huailai/index.html'
p660
aS'http://lishi.tianqi.com/haixing/index.html'
p661
aS'http://lishi.tianqi.com/huanghua/index.html'
p662
aS'http://lishi.tianqi.com/hejian/index.html'
p663
aS'http://lishi.tianqi.com/hengshui/index.html'
p664
aS'http://lishi.tianqi.com/handan/index.html'
p665
aS'http://lishi.tianqi.com/hunyuan/index.html'
p666
aS'http://lishi.tianqi.com/heshun/index.html'
p667
aS'http://lishi.tianqi.com/huguan/index.html'
p668
aS'http://lishi.tianqi.com/hongtong/index.html'
p669
aS'http://lishi.tianqi.com/huozhou/index.html'
p670
aS'http://lishi.tianqi.com/houma/index.html'
p671
aS'http://lishi.tianqi.com/hejin/index.html'
p672
aS'http://lishi.tianqi.com/huairen/index.html'
p673
aS'http://lishi.tianqi.com/hequ/index.html'
p674
aS'http://lishi.tianqi.com/huxian/index.html'
p675
aS'http://lishi.tianqi.com/huangling/index.html'
p676
aS'http://lishi.tianqi.com/huanglong/index.html'
p677
aS'http://lishi.tianqi.com/hengshan/index.html'
p678
aS'http://lishi.tianqi.com/huaxian/index.html'
p679
aS'http://lishi.tianqi.com/heyang/index.html'
p680
aS'http://lishi.tianqi.com/hancheng/index.html'
p681
aS'http://lishi.tianqi.com/huayin/index.html'
p682
aS'http://lishi.tianqi.com/hanyin/index.html'
p683
aS'http://lishi.tianqi.com/hanzhong/index.html'
p684
aS'http://lishi.tianqi.com/huantai/index.html'
p685
aS'http://lishi.tianqi.com/haiyang/index.html'
p686
aS'http://lishi.tianqi.com/hedong/index.html'
p687
aS'http://lishi.tianqi.com/heze/index.html'
p688
aS'http://lishi.tianqi.com/huimin/index.html'
p689
aS'http://lishi.tianqi.com/hekou/index.html'
p690
aS'http://lishi.tianqi.com/hutubi/index.html'
p691
aS'http://lishi.tianqi.com/hejing/index.html'
p692
aS'http://lishi.tianqi.com/heshuo/index.html'
p693
aS'http://lishi.tianqi.com/huocheng/index.html'
p694
aS'http://lishi.tianqi.com/huoerguosi/index.html'
p695
aS'http://lishi.tianqi.com/hebukesaier/index.html'
p696
aS'http://lishi.tianqi.com/hebukesaiermengguzizhixian/index.html'
p697
aS'http://lishi.tianqi.com/hami/index.html'
p698
aS'http://lishi.tianqi.com/hetian/index.html'
p699
aS'http://lishi.tianqi.com/habahe/index.html'
p700
aS'http://lishi.tianqi.com/huangyuan/index.html'
p701
aS'http://lishi.tianqi.com/huangzhong/index.html'
p702
aS'http://lishi.tianqi.com/haidong/index.html'
p703
aS'http://lishi.tianqi.com/huzhu/index.html'
p704
aS'http://lishi.tianqi.com/hualong/index.html'
p705
aS'http://lishi.tianqi.com/huangnan/index.html'
p706
aS'http://lishi.tianqi.com/henan1/index.html'
p707
aS'http://lishi.tianqi.com/hainan/index.html'
p708
aS'http://lishi.tianqi.com/haixi/index.html'
p709
aS'http://lishi.tianqi.com/haibei/index.html'
p710
aS'http://lishi.tianqi.com/haiman/index.html'
p711
aS'http://lishi.tianqi.com/huating/index.html'
p712
aS'http://lishi.tianqi.com/huanxian/index.html'
p713
aS'http://lishi.tianqi.com/huachi/index.html'
p714
aS'http://lishi.tianqi.com/heshui/index.html'
p715
aS'http://lishi.tianqi.com/huixian/index.html'
p716
aS'http://lishi.tianqi.com/hezheng/index.html'
p717
aS'http://lishi.tianqi.com/hezuo/index.html'
p718
aS'http://lishi.tianqi.com/huining/index.html'
p719
aS'http://lishi.tianqi.com/helan/index.html'
p720
aS'http://lishi.tianqi.com/huinong/index.html'
p721
aS'http://lishi.tianqi.com/haiyuan/index.html'
p722
aS'http://lishi.tianqi.com/huaxian1/index.html'
p723
aS'http://lishi.tianqi.com/huojia/index.html'
p724
aS'http://lishi.tianqi.com/huixian1/index.html'
p725
aS'http://lishi.tianqi.com/huaibin/index.html'
p726
aS'http://lishi.tianqi.com/huangchuan/index.html'
p727
aS'http://lishi.tianqi.com/hebi/index.html'
p728
aS'http://lishi.tianqi.com/huaiyang/index.html'
p729
aS'http://lishi.tianqi.com/haian/index.html'
p730
aS'http://lishi.tianqi.com/haimen/index.html'
p731
aS'http://lishi.tianqi.com/hanjiang1/index.html'
p732
aS'http://lishi.tianqi.com/huaian1/index.html'
p733
aS'http://lishi.tianqi.com/hongze/index.html'
p734
aS'http://lishi.tianqi.com/huaiyinqu/index.html'
p735
aS'http://lishi.tianqi.com/huangpi/index.html'
p736
aS'http://lishi.tianqi.com/hanchuan/index.html'
p737
aS'http://lishi.tianqi.com/huanggang/index.html'
p738
aS'http://lishi.tianqi.com/hongan/index.html'
p739
aS'http://lishi.tianqi.com/huangmei/index.html'
p740
aS'http://lishi.tianqi.com/huangshi/index.html'
p741
aS'http://lishi.tianqi.com/honghu/index.html'
p742
aS'http://lishi.tianqi.com/hefeng1/index.html'
p743
aS'http://lishi.tianqi.com/hangzhou/index.html'
p744
aS'http://lishi.tianqi.com/huzhou/index.html'
p745
aS'http://lishi.tianqi.com/haining/index.html'
p746
aS'http://lishi.tianqi.com/haiyan1/index.html'
p747
aS'http://lishi.tianqi.com/haishuqu/index.html'
p748
aS'http://lishi.tianqi.com/hongjia/index.html'
p749
aS'http://lishi.tianqi.com/huangyan/index.html'
p750
aS'http://lishi.tianqi.com/hefei/index.html'
p751
aS'http://lishi.tianqi.com/huaiyuan/index.html'
p752
aS'http://lishi.tianqi.com/huainan/index.html'
p753
aS'http://lishi.tianqi.com/huaining/index.html'
p754
aS'http://lishi.tianqi.com/huangshan/index.html'
p755
aS'http://lishi.tianqi.com/huangshanqu/index.html'
p756
aS'http://lishi.tianqi.com/huangshanfengjingqu/index.html'
p757
aS'http://lishi.tianqi.com/huaibei/index.html'
p758
aS'http://lishi.tianqi.com/huoqiu/index.html'
p759
aS'http://lishi.tianqi.com/huoshan/index.html'
p760
aS'http://lishi.tianqi.com/hanshan/index.html'
p761
aS'http://lishi.tianqi.com/hexian/index.html'
p762
aS'http://lishi.tianqi.com/hanjiang/index.html'
p763
aS'http://lishi.tianqi.com/huian/index.html'
p764
aS'http://lishi.tianqi.com/huaan/index.html'
p765
aS'http://lishi.tianqi.com/hukou/index.html'
p766
aS'http://lishi.tianqi.com/hengfeng/index.html'
p767
aS'http://lishi.tianqi.com/huichang/index.html'
p768
aS'http://lishi.tianqi.com/hengyang/index.html'
p769
aS'http://lishi.tianqi.com/hengshan1/index.html'
p770
aS'http://lishi.tianqi.com/hengdong/index.html'
p771
aS'http://lishi.tianqi.com/hengyangxian/index.html'
p772
aS'http://lishi.tianqi.com/hengnan/index.html'
p773
aS'http://lishi.tianqi.com/hanshou/index.html'
p774
aS'http://lishi.tianqi.com/heshanqu/index.html'
p775
aS'http://lishi.tianqi.com/huarong/index.html'
p776
aS'http://lishi.tianqi.com/huaihua/index.html'
p777
aS'http://lishi.tianqi.com/huitong/index.html'
p778
aS'http://lishi.tianqi.com/hongjiang/index.html'
p779
aS'http://lishi.tianqi.com/huayuan/index.html'
p780
aS'http://lishi.tianqi.com/huaxi/index.html'
p781
aS'http://lishi.tianqi.com/huichuan/index.html'
p782
aS'http://lishi.tianqi.com/honghuagang/index.html'
p783
aS'http://lishi.tianqi.com/huishui/index.html'
p784
aS'http://lishi.tianqi.com/huangping/index.html'
p785
aS'http://lishi.tianqi.com/hezhang/index.html'
p786
aS'http://lishi.tianqi.com/huaying/index.html'
p787
aS'http://lishi.tianqi.com/hejiang/index.html'
p788
aS'http://lishi.tianqi.com/hongya/index.html'
p789
aS'http://lishi.tianqi.com/huili/index.html'
p790
aS'http://lishi.tianqi.com/huidong/index.html'
p791
aS'http://lishi.tianqi.com/hanyuan/index.html'
p792
aS'http://lishi.tianqi.com/heishui/index.html'
p793
aS'http://lishi.tianqi.com/hongyuan/index.html'
p794
aS'http://lishi.tianqi.com/huadu/index.html'
p795
aS'http://lishi.tianqi.com/huizhou/index.html'
p796
aS'http://lishi.tianqi.com/huiyang/index.html'
p797
aS'http://lishi.tianqi.com/huidong1/index.html'
p798
aS'http://lishi.tianqi.com/huaiji/index.html'
p799
aS'http://lishi.tianqi.com/heshan/index.html'
p800
aS'http://lishi.tianqi.com/heyuan/index.html'
p801
aS'http://lishi.tianqi.com/heping/index.html'
p802
aS'http://lishi.tianqi.com/huilai/index.html'
p803
aS'http://lishi.tianqi.com/huazhou/index.html'
p804
aS'http://lishi.tianqi.com/haifeng/index.html'
p805
aS'http://lishi.tianqi.com/heqing/index.html'
p806
aS'http://lishi.tianqi.com/honghe/index.html'
p807
aS'http://lishi.tianqi.com/hekou1/index.html'
p808
aS'http://lishi.tianqi.com/huize/index.html'
p809
aS'http://lishi.tianqi.com/huaning/index.html'
p810
aS'http://lishi.tianqi.com/huaping/index.html'
p811
aS'http://lishi.tianqi.com/hengxian/index.html'
p812
aS'http://lishi.tianqi.com/heshan1/index.html'
p813
aS'http://lishi.tianqi.com/hezhou/index.html'
p814
aS'http://lishi.tianqi.com/hechi/index.html'
p815
aS'http://lishi.tianqi.com/huanjiang/index.html'
p816
aS'http://lishi.tianqi.com/hepu/index.html'
p817
aS'http://lishi.tianqi.com/haikou/index.html'
p818
aS'http://lishi.tianqi.com/hongkong/index.html'
p819
aS'http://lishi.tianqi.com/hualian/index.html'
p820
aS'http://lishi.tianqi.com/hongkou1/index.html'
p821
aS'http://lishi.tianqi.com/jiading/index.html'
p822
aS'http://lishi.tianqi.com/jinshan/index.html'
p823
aS'http://lishi.tianqi.com/jinghai/index.html'
p824
aS'http://lishi.tianqi.com/jinnan/index.html'
p825
aS'http://lishi.tianqi.com/jixian/index.html'
p826
aS'http://lishi.tianqi.com/jiangjin/index.html'
p827
aS'http://lishi.tianqi.com/jiamusi/index.html'
p828
aS'http://lishi.tianqi.com/jiagedaqi/index.html'
p829
aS'http://lishi.tianqi.com/jiayin/index.html'
p830
aS'http://lishi.tianqi.com/jixi/index.html'
p831
aS'http://lishi.tianqi.com/jidong/index.html'
p832
aS'http://lishi.tianqi.com/jiguanqu/index.html'
p833
aS'http://lishi.tianqi.com/jixian1/index.html'
p834
aS'http://lishi.tianqi.com/jiutai/index.html'
p835
aS'http://lishi.tianqi.com/jilin/index.html'
p836
aS'http://lishi.tianqi.com/jiaohe/index.html'
p837
aS'http://lishi.tianqi.com/jian/index.html'
p838
aS'http://lishi.tianqi.com/jingyu/index.html'
p839
aS'http://lishi.tianqi.com/jiangyuan/index.html'
p840
aS'http://lishi.tianqi.com/jinzhou/index.html'
p841
aS'http://lishi.tianqi.com/jinzhou1/index.html'
p842
aS'http://lishi.tianqi.com/jianpingxian/index.html'
p843
aS'http://lishi.tianqi.com/jianchang/index.html'
p844
aS'http://lishi.tianqi.com/jining/index.html'
p845
aS'http://lishi.tianqi.com/jilantai/index.html'
p846
aS'http://lishi.tianqi.com/jingxing/index.html'
p847
aS'http://lishi.tianqi.com/jinzhou2/index.html'
p848
aS'http://lishi.tianqi.com/jingxingkuangqu/index.html'
p849
aS'http://lishi.tianqi.com/jingtanggang/index.html'
p850
aS'http://lishi.tianqi.com/jingxian/index.html'
p851
aS'http://lishi.tianqi.com/jizhou/index.html'
p852
aS'http://lishi.tianqi.com/julu/index.html'
p853
aS'http://lishi.tianqi.com/jize/index.html'
p854
aS'http://lishi.tianqi.com/jiancaopingqu/index.html'
p855
aS'http://lishi.tianqi.com/jinyuanqu/index.html'
p856
aS'http://lishi.tianqi.com/jinzhong/index.html'
p857
aS'http://lishi.tianqi.com/jiexiu/index.html'
p858
aS'http://lishi.tianqi.com/jincheng/index.html'
p859
aS'http://lishi.tianqi.com/beiqu/index.html'
p860
aS'http://lishi.tianqi.com/jishan/index.html'
p861
aS'http://lishi.tianqi.com/jiangxian/index.html'
p862
aS'http://lishi.tianqi.com/jingle/index.html'
p863
aS'http://lishi.tianqi.com/jiaokou/index.html'
p864
aS'http://lishi.tianqi.com/jiaocheng/index.html'
p865
aS'http://lishi.tianqi.com/jingyang/index.html'
p866
aS'http://lishi.tianqi.com/jiaxian/index.html'
p867
aS'http://lishi.tianqi.com/jingbian/index.html'
p868
aS'http://lishi.tianqi.com/jinan/index.html'
p869
aS'http://lishi.tianqi.com/jiyang/index.html'
p870
aS'http://lishi.tianqi.com/shizhongqu/index.html'
p871
aS'http://lishi.tianqi.com/jimo/index.html'
p872
aS'http://lishi.tianqi.com/jiaozhou/index.html'
p873
aS'http://lishi.tianqi.com/jiaonan/index.html'
p874
aS'http://lishi.tianqi.com/jining1/index.html'
p875
aS'http://lishi.tianqi.com/jiaxiang/index.html'
p876
aS'http://lishi.tianqi.com/jinxiang/index.html'
p877
aS'http://lishi.tianqi.com/junan/index.html'
p878
aS'http://lishi.tianqi.com/juancheng/index.html'
p879
aS'http://lishi.tianqi.com/juye/index.html'
p880
aS'http://lishi.tianqi.com/juxian/index.html'
p881
aS'http://lishi.tianqi.com/jimusaer/index.html'
p882
aS'http://lishi.tianqi.com/jiashi/index.html'
p883
aS'http://lishi.tianqi.com/jimunai/index.html'
p884
aS'http://lishi.tianqi.com/jinghe/index.html'
p885
aS'http://lishi.tianqi.com/jiangzi/index.html'
p886
aS'http://lishi.tianqi.com/jilong/index.html'
p887
aS'http://lishi.tianqi.com/jiacha/index.html'
p888
aS'http://lishi.tianqi.com/jiangda/index.html'
p889
aS'http://lishi.tianqi.com/jiali/index.html'
p890
aS'http://lishi.tianqi.com/jianzha/index.html'
p891
aS'http://lishi.tianqi.com/jiuzhi/index.html'
p892
aS'http://lishi.tianqi.com/jingchuan/index.html'
p893
aS'http://lishi.tianqi.com/jingning/index.html'
p894
aS'http://lishi.tianqi.com/jinchang/index.html'
p895
aS'http://lishi.tianqi.com/jiuquan/index.html'
p896
aS'http://lishi.tianqi.com/jinta/index.html'
p897
aS'http://lishi.tianqi.com/jishishan/index.html'
p898
aS'http://lishi.tianqi.com/jingyuan/index.html'
p899
aS'http://lishi.tianqi.com/jingtai/index.html'
p900
aS'http://lishi.tianqi.com/jiayuguan/index.html'
p901
aS'http://lishi.tianqi.com/jinyuan1/index.html'
p902
aS'http://lishi.tianqi.com/jiaxian1/index.html'
p903
aS'http://lishi.tianqi.com/jinmingqu/index.html'
p904
aS'http://lishi.tianqi.com/jili/index.html'
p905
aS'http://lishi.tianqi.com/jianxiqu/index.html'
p906
aS'http://lishi.tianqi.com/jiaozuo/index.html'
p907
aS'http://lishi.tianqi.com/jiyuan/index.html'
p908
aS'http://lishi.tianqi.com/jiangning/index.html'
p909
aS'http://lishi.tianqi.com/jiangpu/index.html'
p910
aS'http://lishi.tianqi.com/jiangyin/index.html'
p911
aS'http://lishi.tianqi.com/jurong/index.html'
p912
aS'http://lishi.tianqi.com/jiangdu/index.html'
p913
aS'http://lishi.tianqi.com/jianhu/index.html'
p914
aS'http://lishi.tianqi.com/jinhu/index.html'
p915
aS'http://lishi.tianqi.com/jintan/index.html'
p916
aS'http://lishi.tianqi.com/jiangyan/index.html'
p917
aS'http://lishi.tianqi.com/jingjiang2/index.html'
p918
aS'http://lishi.tianqi.com/jiangxia/index.html'
p919
aS'http://lishi.tianqi.com/jianghanqu/index.html'
p920
aS'http://lishi.tianqi.com/jiayu/index.html'
p921
aS'http://lishi.tianqi.com/jingzhou/index.html'
p922
aS'http://lishi.tianqi.com/jiangling/index.html'
p923
aS'http://lishi.tianqi.com/jianli/index.html'
p924
aS'http://lishi.tianqi.com/jianshi/index.html'
p925
aS'http://lishi.tianqi.com/jingmen/index.html'
p926
aS'http://lishi.tianqi.com/jingshan/index.html'
p927
aS'http://lishi.tianqi.com/jiande/index.html'
p928
aS'http://lishi.tianqi.com/jiaxing/index.html'
p929
aS'http://lishi.tianqi.com/jiashan/index.html'
p930
aS'http://lishi.tianqi.com/jiaojiang/index.html'
p931
aS'http://lishi.tianqi.com/jinyun/index.html'
p932
aS'http://lishi.tianqi.com/jingning1/index.html'
p933
aS'http://lishi.tianqi.com/jinhua/index.html'
p934
aS'http://lishi.tianqi.com/jiangshan/index.html'
p935
aS'http://lishi.tianqi.com/juchaoqu/index.html'
p936
aS'http://lishi.tianqi.com/jiujiangqu/index.html'
p937
aS'http://lishi.tianqi.com/jinjiazhuangqu/index.html'
p938
aS'http://lishi.tianqi.com/jieshou/index.html'
p939
aS'http://lishi.tianqi.com/jingxian1/index.html'
p940
aS'http://lishi.tianqi.com/jingde/index.html'
p941
aS'http://lishi.tianqi.com/jixi1/index.html'
p942
aS'http://lishi.tianqi.com/jinzhai/index.html'
p943
aS'http://lishi.tianqi.com/jiuhuashan/index.html'
p944
aS'http://lishi.tianqi.com/jiaochengqu/index.html'
p945
aS'http://lishi.tianqi.com/jinjiang/index.html'
p946
aS'http://lishi.tianqi.com/jiangle/index.html'
p947
aS'http://lishi.tianqi.com/jianning/index.html'
p948
aS'http://lishi.tianqi.com/jianyang/index.html'
p949
aS'http://lishi.tianqi.com/jianou/index.html'
p950
aS'http://lishi.tianqi.com/jinxian/index.html'
p951
aS'http://lishi.tianqi.com/jiujiang/index.html'
p952
aS'http://lishi.tianqi.com/jinxi/index.html'
p953
aS'http://lishi.tianqi.com/jingan/index.html'
p954
aS'http://lishi.tianqi.com/jian1/index.html'
p955
aS'http://lishi.tianqi.com/jianxian/index.html'
p956
aS'http://lishi.tianqi.com/jishui/index.html'
p957
aS'http://lishi.tianqi.com/jinggangshan/index.html'
p958
aS'http://lishi.tianqi.com/jingdezhen/index.html'
p959
aS'http://lishi.tianqi.com/jiahe/index.html'
p960
aS'http://lishi.tianqi.com/jinshi/index.html'
p961
aS'http://lishi.tianqi.com/jingzhou1/index.html'
p962
aS'http://lishi.tianqi.com/jiangyong/index.html'
p963
aS'http://lishi.tianqi.com/jianghua/index.html'
p964
aS'http://lishi.tianqi.com/jishou/index.html'
p965
aS'http://lishi.tianqi.com/jianhe/index.html'
p966
aS'http://lishi.tianqi.com/jinping/index.html'
p967
aS'http://lishi.tianqi.com/jiangkou/index.html'
p968
aS'http://lishi.tianqi.com/jinsha/index.html'
p969
aS'http://lishi.tianqi.com/jintang/index.html'
p970
aS'http://lishi.tianqi.com/jinjiangqu/index.html'
p971
aS'http://lishi.tianqi.com/jiangyou/index.html'
p972
aS'http://lishi.tianqi.com/jiangan/index.html'
p973
aS'http://lishi.tianqi.com/junlian/index.html'
p974
aS'http://lishi.tianqi.com/jianyang1/index.html'
p975
aS'http://lishi.tianqi.com/jingyan/index.html'
p976
aS'http://lishi.tianqi.com/jiajiang/index.html'
p977
aS'http://lishi.tianqi.com/jinyang/index.html'
p978
aS'http://lishi.tianqi.com/jiulong/index.html'
p979
aS'http://lishi.tianqi.com/jiuzhaigou/index.html'
p980
aS'http://lishi.tianqi.com/jinchuan/index.html'
p981
aS'http://lishi.tianqi.com/jiange/index.html'
p982
aS'http://lishi.tianqi.com/jiaoling/index.html'
p983
aS'http://lishi.tianqi.com/jinwan/index.html'
p984
aS'http://lishi.tianqi.com/jiangmen/index.html'
p985
aS'http://lishi.tianqi.com/jianghai/index.html'
p986
aS'http://lishi.tianqi.com/jieyang/index.html'
p987
aS'http://lishi.tianqi.com/jiexi/index.html'
p988
aS'http://lishi.tianqi.com/jiedong/index.html'
p989
aS'http://lishi.tianqi.com/jinning/index.html'
p990
aS'http://lishi.tianqi.com/jianchuan/index.html'
p991
aS'http://lishi.tianqi.com/jianshui/index.html'
p992
aS'http://lishi.tianqi.com/jinping1/index.html'
p993
aS'http://lishi.tianqi.com/jiangchuan/index.html'
p994
aS'http://lishi.tianqi.com/jinggu/index.html'
p995
aS'http://lishi.tianqi.com/jingdong/index.html'
p996
aS'http://lishi.tianqi.com/jiangcheng/index.html'
p997
aS'http://lishi.tianqi.com/jinghong/index.html'
p998
aS'http://lishi.tianqi.com/jinxiu/index.html'
p999
aS'http://lishi.tianqi.com/jingxi/index.html'
p1000
aS'http://lishi.tianqi.com/jiulong1/index.html'
p1001
aS'http://lishi.tianqi.com/jiayi/index.html'
p1002
aS'http://lishi.tianqi.com/kaixian/index.html'
p1003
aS'http://lishi.tianqi.com/keshan/index.html'
p1004
aS'http://lishi.tianqi.com/kedong/index.html'
p1005
aS'http://lishi.tianqi.com/kangping/index.html'
p1006
aS'http://lishi.tianqi.com/kuandian/index.html'
p1007
aS'http://lishi.tianqi.com/kaiyuan/index.html'
p1008
aS'http://lishi.tianqi.com/kazuo/index.html'
p1009
aS'http://lishi.tianqi.com/kezuozhongqi/index.html'
p1010
aS'http://lishi.tianqi.com/kezuohouqi/index.html'
p1011
aS'http://lishi.tianqi.com/kailu/index.html'
p1012
aS'http://lishi.tianqi.com/kulun/index.html'
p1013
aS'http://lishi.tianqi.com/keshiketeng/index.html'
p1014
aS'http://lishi.tianqi.com/kalaqin/index.html'
p1015
aS'http://lishi.tianqi.com/keyouzhongqi/index.html'
p1016
aS'http://lishi.tianqi.com/keyouqianqi/index.html'
p1017
aS'http://lishi.tianqi.com/kuangqu/index.html'
p1018
aS'http://lishi.tianqi.com/kangbao/index.html'
p1019
aS'http://lishi.tianqi.com/kuancheng/index.html'
p1020
aS'http://lishi.tianqi.com/kaipingqu/index.html'
p1021
aS'http://lishi.tianqi.com/kelan/index.html'
p1022
aS'http://lishi.tianqi.com/kenli/index.html'
p1023
aS'http://lishi.tianqi.com/kelamayi/index.html'
p1024
aS'http://lishi.tianqi.com/kuerle/index.html'
p1025
aS'http://lishi.tianqi.com/kuche/index.html'
p1026
aS'http://lishi.tianqi.com/keping/index.html'
p1027
aS'http://lishi.tianqi.com/kashi/index.html'
p1028
aS'http://lishi.tianqi.com/kuitunshi/index.html'
p1029
aS'http://lishi.tianqi.com/kangma/index.html'
p1030
aS'http://lishi.tianqi.com/kongtong/index.html'
p1031
aS'http://lishi.tianqi.com/kangxian/index.html'
p1032
aS'http://lishi.tianqi.com/kangle/index.html'
p1033
aS'http://lishi.tianqi.com/kaifeng/index.html'
p1034
aS'http://lishi.tianqi.com/kunshan/index.html'
p1035
aS'http://lishi.tianqi.com/kaihua/index.html'
p1036
aS'http://lishi.tianqi.com/kaiyang/index.html'
p1037
aS'http://lishi.tianqi.com/kaili/index.html'
p1038
aS'http://lishi.tianqi.com/kaijiang/index.html'
p1039
aS'http://lishi.tianqi.com/kangding/index.html'
p1040
aS'http://lishi.tianqi.com/kaiping/index.html'
p1041
aS'http://lishi.tianqi.com/kunming/index.html'
p1042
aS'http://lishi.tianqi.com/kaiyuan1/index.html'
p1043
aS'http://lishi.tianqi.com/liangping/index.html'
p1044
aS'http://lishi.tianqi.com/longjiang/index.html'
p1045
aS'http://lishi.tianqi.com/linkou/index.html'
p1046
aS'http://lishi.tianqi.com/lanxi/index.html'
p1047
aS'http://lishi.tianqi.com/lindian/index.html'
p1048
aS'http://lishi.tianqi.com/luobei/index.html'
p1049
aS'http://lishi.tianqi.com/longjing/index.html'
p1050
aS'http://lishi.tianqi.com/lishu/index.html'
p1051
aS'http://lishi.tianqi.com/liuhe/index.html'
p1052
aS'http://lishi.tianqi.com/liaoyuan/index.html'
p1053
aS'http://lishi.tianqi.com/linjiang/index.html'
p1054
aS'http://lishi.tianqi.com/liaozhong/index.html'
p1055
aS'http://lishi.tianqi.com/lvshun/index.html'
p1056
aS'http://lishi.tianqi.com/linghai/index.html'
p1057
aS'http://lishi.tianqi.com/liaoyang/index.html'
p1058
aS'http://lishi.tianqi.com/liaoyangxian/index.html'
p1059
aS'http://lishi.tianqi.com/lingyuan/index.html'
p1060
aS'http://lishi.tianqi.com/liangcheng/index.html'
p1061
aS'http://lishi.tianqi.com/linxi/index.html'
p1062
aS'http://lishi.tianqi.com/linhe/index.html'
p1063
aS'http://lishi.tianqi.com/luanjingtan/index.html'
p1064
aS'http://lishi.tianqi.com/luancheng/index.html'
p1065
aS'http://lishi.tianqi.com/lingshou/index.html'
p1066
aS'http://lishi.tianqi.com/luquan1/index.html'
p1067
aS'http://lishi.tianqi.com/laiyuan/index.html'
p1068
aS'http://lishi.tianqi.com/lixian/index.html'
p1069
aS'http://lishi.tianqi.com/laishui/index.html'
p1070
aS'http://lishi.tianqi.com/luanping/index.html'
p1071
aS'http://lishi.tianqi.com/longhua/index.html'
p1072
aS'http://lishi.tianqi.com/luanxian/index.html'
p1073
aS'http://lishi.tianqi.com/luannan/index.html'
p1074
aS'http://lishi.tianqi.com/laoting/index.html'
p1075
aS'http://lishi.tianqi.com/lubeiqu/index.html'
p1076
aS'http://lishi.tianqi.com/langfang/index.html'
p1077
aS'http://lishi.tianqi.com/lincheng/index.html'
p1078
aS'http://lishi.tianqi.com/longyao/index.html'
p1079
aS'http://lishi.tianqi.com/linxi1/index.html'
p1080
aS'http://lishi.tianqi.com/linzhang/index.html'
p1081
aS'http://lishi.tianqi.com/lulong/index.html'
p1082
aS'http://lishi.tianqi.com/loufan/index.html'
p1083
aS'http://lishi.tianqi.com/lingqiu/index.html'
p1084
aS'http://lishi.tianqi.com/lingshi/index.html'
p1085
aS'http://lishi.tianqi.com/licheng/index.html'
p1086
aS'http://lishi.tianqi.com/lucheng/index.html'
p1087
aS'http://lishi.tianqi.com/lingchuan/index.html'
p1088
aS'http://lishi.tianqi.com/linfen/index.html'
p1089
aS'http://lishi.tianqi.com/linyi/index.html'
p1090
aS'http://lishi.tianqi.com/lvliang/index.html'
p1091
aS'http://lishi.tianqi.com/lishi1/index.html'
p1092
aS'http://lishi.tianqi.com/linxian/index.html'
p1093
aS'http://lishi.tianqi.com/lanxian/index.html'
p1094
aS'http://lishi.tianqi.com/liulin/index.html'
p1095
aS'http://lishi.tianqi.com/lintong/index.html'
p1096
aS'http://lishi.tianqi.com/lantian/index.html'
p1097
aS'http://lishi.tianqi.com/liquan/index.html'
p1098
aS'http://lishi.tianqi.com/luochuan/index.html'
p1099
aS'http://lishi.tianqi.com/luonan/index.html'
p1100
aS'http://lishi.tianqi.com/langao/index.html'
p1101
aS'http://lishi.tianqi.com/lueyang/index.html'
p1102
aS'http://lishi.tianqi.com/liuba/index.html'
p1103
aS'http://lishi.tianqi.com/linyou/index.html'
p1104
aS'http://lishi.tianqi.com/longxian/index.html'
p1105
aS'http://lishi.tianqi.com/laoshan/index.html'
p1106
aS'http://lishi.tianqi.com/laixi/index.html'
p1107
aS'http://lishi.tianqi.com/licangqu/index.html'
p1108
aS'http://lishi.tianqi.com/linzi/index.html'
p1109
aS'http://lishi.tianqi.com/linyi1/index.html'
p1110
aS'http://lishi.tianqi.com/lingxian/index.html'
p1111
aS'http://lishi.tianqi.com/leling/index.html'
p1112
aS'http://lishi.tianqi.com/laizhou/index.html'
p1113
aS'http://lishi.tianqi.com/longkou/index.html'
p1114
aS'http://lishi.tianqi.com/laiyang/index.html'
p1115
aS'http://lishi.tianqi.com/linqu/index.html'
p1116
aS'http://lishi.tianqi.com/liangshan/index.html'
p1117
aS'http://lishi.tianqi.com/linyi2/index.html'
p1118
aS'http://lishi.tianqi.com/linshu/index.html'
p1119
aS'http://lishi.tianqi.com/lijin/index.html'
p1120
aS'http://lishi.tianqi.com/laiwu/index.html'
p1121
aS'http://lishi.tianqi.com/liaocheng/index.html'
p1122
aS'http://lishi.tianqi.com/linqing/index.html'
p1123
aS'http://lishi.tianqi.com/luntai/index.html'
p1124
aS'http://lishi.tianqi.com/luopu/index.html'
p1125
aS'http://lishi.tianqi.com/lasa/index.html'
p1126
aS'http://lishi.tianqi.com/linzhou1/index.html'
p1127
aS'http://lishi.tianqi.com/lazi/index.html'
p1128
aS'http://lishi.tianqi.com/langkazi/index.html'
p1129
aS'http://lishi.tianqi.com/longzi/index.html'
p1130
aS'http://lishi.tianqi.com/luozha/index.html'
p1131
aS'http://lishi.tianqi.com/linzhi/index.html'
p1132
aS'http://lishi.tianqi.com/langxian/index.html'
p1133
aS'http://lishi.tianqi.com/luolong/index.html'
p1134
aS'http://lishi.tianqi.com/leiwuqi/index.html'
p1135
aS'http://lishi.tianqi.com/ledu/index.html'
p1136
aS'http://lishi.tianqi.com/lenghu/index.html'
p1137
aS'http://lishi.tianqi.com/lanzhou/index.html'
p1138
aS'http://lishi.tianqi.com/longxi/index.html'
p1139
aS'http://lishi.tianqi.com/lintao/index.html'
p1140
aS'http://lishi.tianqi.com/lingtai/index.html'
p1141
aS'http://lishi.tianqi.com/linze/index.html'
p1142
aS'http://lishi.tianqi.com/lixian1/index.html'
p1143
aS'http://lishi.tianqi.com/liangdang/index.html'
p1144
aS'http://lishi.tianqi.com/linxia/index.html'
p1145
aS'http://lishi.tianqi.com/lintan/index.html'
p1146
aS'http://lishi.tianqi.com/luqu/index.html'
p1147
aS'http://lishi.tianqi.com/lingwu/index.html'
p1148
aS'http://lishi.tianqi.com/longde/index.html'
p1149
aS'http://lishi.tianqi.com/linzhou/index.html'
p1150
aS'http://lishi.tianqi.com/longanqu/index.html'
p1151
aS'http://lishi.tianqi.com/lushan/index.html'
p1152
aS'http://lishi.tianqi.com/luoshan/index.html'
p1153
aS'http://lishi.tianqi.com/lankao/index.html'
p1154
aS'http://lishi.tianqi.com/luoyang/index.html'
p1155
aS'http://lishi.tianqi.com/luoning/index.html'
p1156
aS'http://lishi.tianqi.com/luanchuan/index.html'
p1157
aS'http://lishi.tianqi.com/luyi/index.html'
p1158
aS'http://lishi.tianqi.com/luohe/index.html'
p1159
aS'http://lishi.tianqi.com/linying/index.html'
p1160
aS'http://lishi.tianqi.com/lingbao/index.html'
p1161
aS'http://lishi.tianqi.com/lushi/index.html'
p1162
aS'http://lishi.tianqi.com/lishui2/index.html'
p1163
aS'http://lishi.tianqi.com/luhe1/index.html'
p1164
aS'http://lishi.tianqi.com/lianshui/index.html'
p1165
aS'http://lishi.tianqi.com/lianyungang/index.html'
p1166
aS'http://lishi.tianqi.com/liyang/index.html'
p1167
aS'http://lishi.tianqi.com/laohekou/index.html'
p1168
aS'http://lishi.tianqi.com/liangzihu/index.html'
p1169
aS'http://lishi.tianqi.com/luotian/index.html'
p1170
aS'http://lishi.tianqi.com/lichuan/index.html'
p1171
aS'http://lishi.tianqi.com/laifeng/index.html'
p1172
aS'http://lishi.tianqi.com/linan/index.html'
p1173
aS'http://lishi.tianqi.com/linhai/index.html'
p1174
aS'http://lishi.tianqi.com/luqiao/index.html'
p1175
aS'http://lishi.tianqi.com/lishui/index.html'
p1176
aS'http://lishi.tianqi.com/longquan/index.html'
p1177
aS'http://lishi.tianqi.com/lanxi1/index.html'
p1178
aS'http://lishi.tianqi.com/longyou/index.html'
p1179
aS'http://lishi.tianqi.com/luyang/index.html'
p1180
aS'http://lishi.tianqi.com/lingbi/index.html'
p1181
aS'http://lishi.tianqi.com/linquan/index.html'
p1182
aS'http://lishi.tianqi.com/lixin/index.html'
p1183
aS'http://lishi.tianqi.com/laian/index.html'
p1184
aS'http://lishi.tianqi.com/langxi/index.html'
p1185
aS'http://lishi.tianqi.com/luan/index.html'
p1186
aS'http://lishi.tianqi.com/lujiang/index.html'
p1187
aS'http://lishi.tianqi.com/luoyuan/index.html'
p1188
aS'http://lishi.tianqi.com/lianjiang/index.html'
p1189
aS'http://lishi.tianqi.com/licheng1/index.html'
p1190
aS'http://lishi.tianqi.com/longhai/index.html'
p1191
aS'http://lishi.tianqi.com/longyan/index.html'
p1192
aS'http://lishi.tianqi.com/liancheng/index.html'
p1193
aS'http://lishi.tianqi.com/lushan1/index.html'
p1194
aS'http://lishi.tianqi.com/lean/index.html'
p1195
aS'http://lishi.tianqi.com/lichuan1/index.html'
p1196
aS'http://lishi.tianqi.com/longnan/index.html'
p1197
aS'http://lishi.tianqi.com/leping/index.html'
p1198
aS'http://lishi.tianqi.com/lianhua/index.html'
p1199
aS'http://lishi.tianqi.com/luxi3/index.html'
p1200
aS'http://lishi.tianqi.com/liuyang/index.html'
p1201
aS'http://lishi.tianqi.com/liling/index.html'
p1202
aS'http://lishi.tianqi.com/leiyang/index.html'
p1203
aS'http://lishi.tianqi.com/linwu/index.html'
p1204
aS'http://lishi.tianqi.com/lixian2/index.html'
p1205
aS'http://lishi.tianqi.com/linli/index.html'
p1206
aS'http://lishi.tianqi.com/loudi/index.html'
p1207
aS'http://lishi.tianqi.com/lengshuijiang/index.html'
p1208
aS'http://lishi.tianqi.com/lianyuan/index.html'
p1209
aS'http://lishi.tianqi.com/longhui/index.html'
p1210
aS'http://lishi.tianqi.com/linxiang/index.html'
p1211
aS'http://lishi.tianqi.com/lanshan/index.html'
p1212
aS'http://lishi.tianqi.com/lengshuitan/index.html'
p1213
aS'http://lishi.tianqi.com/lingling/index.html'
p1214
aS'http://lishi.tianqi.com/luxi/index.html'
p1215
aS'http://lishi.tianqi.com/longshan/index.html'
p1216
aS'http://lishi.tianqi.com/longli/index.html'
p1217
aS'http://lishi.tianqi.com/luodian/index.html'
p1218
aS'http://lishi.tianqi.com/libo/index.html'
p1219
aS'http://lishi.tianqi.com/leishan/index.html'
p1220
aS'http://lishi.tianqi.com/liping/index.html'
p1221
aS'http://lishi.tianqi.com/liuzhi/index.html'
p1222
aS'http://lishi.tianqi.com/longquanyi/index.html'
p1223
aS'http://lishi.tianqi.com/langzhong/index.html'
p1224
aS'http://lishi.tianqi.com/linshui/index.html'
p1225
aS'http://lishi.tianqi.com/luzhou/index.html'
p1226
aS'http://lishi.tianqi.com/luxian/index.html'
p1227
aS'http://lishi.tianqi.com/longchang/index.html'
p1228
aS'http://lishi.tianqi.com/lezhi/index.html'
p1229
aS'http://lishi.tianqi.com/leshan/index.html'
p1230
aS'http://lishi.tianqi.com/liangshan1/index.html'
p1231
aS'http://lishi.tianqi.com/leibo/index.html'
p1232
aS'http://lishi.tianqi.com/lushan2/index.html'
p1233
aS'http://lishi.tianqi.com/luding/index.html'
p1234
aS'http://lishi.tianqi.com/luhuo/index.html'
p1235
aS'http://lishi.tianqi.com/litang/index.html'
p1236
aS'http://lishi.tianqi.com/lixian3/index.html'
p1237
aS'http://lishi.tianqi.com/luojiang/index.html'
p1238
aS'http://lishi.tianqi.com/lechang/index.html'
p1239
aS'http://lishi.tianqi.com/longmen/index.html'
p1240
aS'http://lishi.tianqi.com/leizhou/index.html'
p1241
aS'http://lishi.tianqi.com/lianjiang1/index.html'
p1242
aS'http://lishi.tianqi.com/lianping/index.html'
p1243
aS'http://lishi.tianqi.com/longchuan/index.html'
p1244
aS'http://lishi.tianqi.com/liannan/index.html'
p1245
aS'http://lishi.tianqi.com/lianzhou/index.html'
p1246
aS'http://lishi.tianqi.com/lianshan/index.html'
p1247
aS'http://lishi.tianqi.com/luoding/index.html'
p1248
aS'http://lishi.tianqi.com/lufeng/index.html'
p1249
aS'http://lishi.tianqi.com/luhe/index.html'
p1250
aS'http://lishi.tianqi.com/luquan/index.html'
p1251
aS'http://lishi.tianqi.com/lvchun/index.html'
p1252
aS'http://lishi.tianqi.com/luxi1/index.html'
p1253
aS'http://lishi.tianqi.com/luliang/index.html'
p1254
aS'http://lishi.tianqi.com/luoping/index.html'
p1255
aS'http://lishi.tianqi.com/longling/index.html'
p1256
aS'http://lishi.tianqi.com/lufeng1/index.html'
p1257
aS'http://lishi.tianqi.com/lancang/index.html'
p1258
aS'http://lishi.tianqi.com/ludian/index.html'
p1259
aS'http://lishi.tianqi.com/lincang/index.html'
p1260
aS'http://lishi.tianqi.com/lanping/index.html'
p1261
aS'http://lishi.tianqi.com/lushui/index.html'
p1262
aS'http://lishi.tianqi.com/liuku/index.html'
p1263
aS'http://lishi.tianqi.com/lijiang/index.html'
p1264
aS'http://lishi.tianqi.com/longchuan1/index.html'
p1265
aS'http://lishi.tianqi.com/lianghe/index.html'
p1266
aS'http://lishi.tianqi.com/luxi2/index.html'
p1267
aS'http://lishi.tianqi.com/longan/index.html'
p1268
aS'http://lishi.tianqi.com/longzhou/index.html'
p1269
aS'http://lishi.tianqi.com/liuzhou/index.html'
p1270
aS'http://lishi.tianqi.com/liucheng/index.html'
p1271
aS'http://lishi.tianqi.com/luzhai/index.html'
p1272
aS'http://lishi.tianqi.com/liujiang/index.html'
p1273
aS'http://lishi.tianqi.com/laibin/index.html'
p1274
aS'http://lishi.tianqi.com/longsheng/index.html'
p1275
aS'http://lishi.tianqi.com/lingui/index.html'
p1276
aS'http://lishi.tianqi.com/lingchuan1/index.html'
p1277
aS'http://lishi.tianqi.com/lipu/index.html'
p1278
aS'http://lishi.tianqi.com/luchuan/index.html'
p1279
aS'http://lishi.tianqi.com/longlin/index.html'
p1280
aS'http://lishi.tianqi.com/leye/index.html'
p1281
aS'http://lishi.tianqi.com/lingyun/index.html'
p1282
aS'http://lishi.tianqi.com/lingshan/index.html'
p1283
aS'http://lishi.tianqi.com/luocheng/index.html'
p1284
aS'http://lishi.tianqi.com/lingao/index.html'
p1285
aS'http://lishi.tianqi.com/lingshui/index.html'
p1286
aS'http://lishi.tianqi.com/ledong/index.html'
p1287
aS'http://lishi.tianqi.com/luhuandao/index.html'
p1288
aS'http://lishi.tianqi.com/miyun/index.html'
p1289
aS'http://lishi.tianqi.com/mentougou/index.html'
p1290
aS'http://lishi.tianqi.com/minhang/index.html'
p1291
aS'http://lishi.tianqi.com/mulan/index.html'
p1292
aS'http://lishi.tianqi.com/meilisidawoerzuqu/index.html'
p1293
aS'http://lishi.tianqi.com/mudanjiang/index.html'
p1294
aS'http://lishi.tianqi.com/muling/index.html'
p1295
aS'http://lishi.tianqi.com/mingshui/index.html'
p1296
aS'http://lishi.tianqi.com/mohe/index.html'
p1297
aS'http://lishi.tianqi.com/mishan/index.html'
p1298
aS'http://lishi.tianqi.com/meihekou/index.html'
p1299
aS'http://lishi.tianqi.com/mandula/index.html'
p1300
aS'http://lishi.tianqi.com/molidawa/index.html'
p1301
aS'http://lishi.tianqi.com/manzhouli/index.html'
p1302
aS'http://lishi.tianqi.com/mancheng/index.html'
p1303
aS'http://lishi.tianqi.com/mengcun/index.html'
p1304
aS'http://lishi.tianqi.com/mizhi/index.html'
p1305
aS'http://lishi.tianqi.com/mianxian/index.html'
p1306
aS'http://lishi.tianqi.com/meixian/index.html'
p1307
aS'http://lishi.tianqi.com/muping/index.html'
p1308
aS'http://lishi.tianqi.com/mengyin/index.html'
p1309
aS'http://lishi.tianqi.com/mosuowan/index.html'
p1310
aS'http://lishi.tianqi.com/miquan/index.html'
p1311
aS'http://lishi.tianqi.com/manasi/index.html'
p1312
aS'http://lishi.tianqi.com/mulei/index.html'
p1313
aS'http://lishi.tianqi.com/moriqu/index.html'
p1314
aS'http://lishi.tianqi.com/maigaiti/index.html'
p1315
aS'http://lishi.tianqi.com/moyu/index.html'
p1316
aS'http://lishi.tianqi.com/mingfeng/index.html'
p1317
aS'http://lishi.tianqi.com/mozhugongka/index.html'
p1318
aS'http://lishi.tianqi.com/milin/index.html'
p1319
aS'http://lishi.tianqi.com/motuo/index.html'
p1320
aS'http://lishi.tianqi.com/mangkang/index.html'
p1321
aS'http://lishi.tianqi.com/minhe/index.html'
p1322
aS'http://lishi.tianqi.com/madu/index.html'
p1323
aS'http://lishi.tianqi.com/maqin/index.html'
p1324
aS'http://lishi.tianqi.com/mangai/index.html'
p1325
aS'http://lishi.tianqi.com/menyuan/index.html'
p1326
aS'http://lishi.tianqi.com/minxian/index.html'
p1327
aS'http://lishi.tianqi.com/minqin/index.html'
p1328
aS'http://lishi.tianqi.com/minle/index.html'
p1329
aS'http://lishi.tianqi.com/maiji/index.html'
p1330
aS'http://lishi.tianqi.com/maqu/index.html'
p1331
aS'http://lishi.tianqi.com/mengjin/index.html'
p1332
aS'http://lishi.tianqi.com/minquan/index.html'
p1333
aS'http://lishi.tianqi.com/mengzhou/index.html'
p1334
aS'http://lishi.tianqi.com/mianchi/index.html'
p1335
aS'http://lishi.tianqi.com/macheng/index.html'
p1336
aS'http://lishi.tianqi.com/maojian/index.html'
p1337
aS'http://lishi.tianqi.com/maanshan/index.html'
p1338
aS'http://lishi.tianqi.com/mengcheng/index.html'
p1339
aS'http://lishi.tianqi.com/mingguang/index.html'
p1340
aS'http://lishi.tianqi.com/minqing/index.html'
p1341
aS'http://lishi.tianqi.com/minhou/index.html'
p1342
aS'http://lishi.tianqi.com/mingxi/index.html'
p1343
aS'http://lishi.tianqi.com/mapoling/index.html'
p1344
aS'http://lishi.tianqi.com/miluo/index.html'
p1345
aS'http://lishi.tianqi.com/mayang/index.html'
p1346
aS'http://lishi.tianqi.com/meitan/index.html'
p1347
aS'http://lishi.tianqi.com/majiang/index.html'
p1348
aS'http://lishi.tianqi.com/miyi/index.html'
p1349
aS'http://lishi.tianqi.com/mianyang/index.html'
p1350
aS'http://lishi.tianqi.com/muchuan/index.html'
p1351
aS'http://lishi.tianqi.com/mabian/index.html'
p1352
aS'http://lishi.tianqi.com/meishan/index.html'
p1353
aS'http://lishi.tianqi.com/muli/index.html'
p1354
aS'http://lishi.tianqi.com/mianning/index.html'
p1355
aS'http://lishi.tianqi.com/meigu/index.html'
p1356
aS'http://lishi.tianqi.com/mingshan/index.html'
p1357
aS'http://lishi.tianqi.com/maoxian/index.html'
p1358
aS'http://lishi.tianqi.com/maerkang/index.html'
p1359
aS'http://lishi.tianqi.com/mianzhu/index.html'
p1360
aS'http://lishi.tianqi.com/meizhou/index.html'
p1361
aS'http://lishi.tianqi.com/meixian1/index.html'
p1362
aS'http://lishi.tianqi.com/mazhang/index.html'
p1363
aS'http://lishi.tianqi.com/maoming/index.html'
p1364
aS'http://lishi.tianqi.com/maogang/index.html'
p1365
aS'http://lishi.tianqi.com/midu/index.html'
p1366
aS'http://lishi.tianqi.com/mile/index.html'
p1367
aS'http://lishi.tianqi.com/mengzi/index.html'
p1368
aS'http://lishi.tianqi.com/malong/index.html'
p1369
aS'http://lishi.tianqi.com/maguan/index.html'
p1370
aS'http://lishi.tianqi.com/malipo/index.html'
p1371
aS'http://lishi.tianqi.com/mouding/index.html'
p1372
aS'http://lishi.tianqi.com/mojiang/index.html'
p1373
aS'http://lishi.tianqi.com/menglian/index.html'
p1374
aS'http://lishi.tianqi.com/menghai/index.html'
p1375
aS'http://lishi.tianqi.com/mengla/index.html'
p1376
aS'http://lishi.tianqi.com/mashan/index.html'
p1377
aS'http://lishi.tianqi.com/mengshan/index.html'
p1378
aS'http://lishi.tianqi.com/miaoli/index.html'
p1379
aS'http://lishi.tianqi.com/ninghe/index.html'
p1380
aS'http://lishi.tianqi.com/nanchuan/index.html'
p1381
aS'http://lishi.tianqi.com/nehe/index.html'
p1382
aS'http://lishi.tianqi.com/ningan/index.html'
p1383
aS'http://lishi.tianqi.com/nenjiang/index.html'
p1384
aS'http://lishi.tianqi.com/nongan/index.html'
p1385
aS'http://lishi.tianqi.com/naiman/index.html'
p1386
aS'http://lishi.tianqi.com/ningcheng/index.html'
p1387
aS'http://lishi.tianqi.com/narenbaolige/index.html'
p1388
aS'http://lishi.tianqi.com/nuoergong/index.html'
p1389
aS'http://lishi.tianqi.com/nanshiqu/index.html'
p1390
aS'http://lishi.tianqi.com/nanpi/index.html'
p1391
aS'http://lishi.tianqi.com/neiqiu/index.html'
p1392
aS'http://lishi.tianqi.com/nanhe/index.html'
p1393
aS'http://lishi.tianqi.com/ningjin/index.html'
p1394
aS'http://lishi.tianqi.com/nangong/index.html'
p1395
aS'http://lishi.tianqi.com/ningwu/index.html'
p1396
aS'http://lishi.tianqi.com/ningshan/index.html'
p1397
aS'http://lishi.tianqi.com/ningqiang/index.html'
p1398
aS'http://lishi.tianqi.com/nanzheng/index.html'
p1399
aS'http://lishi.tianqi.com/ningjin1/index.html'
p1400
aS'http://lishi.tianqi.com/ningyang/index.html'
p1401
aS'http://lishi.tianqi.com/nileke/index.html'
p1402
aS'http://lishi.tianqi.com/nimu/index.html'
p1403
aS'http://lishi.tianqi.com/nanmulin/index.html'
p1404
aS'http://lishi.tianqi.com/nielamu/index.html'
p1405
aS'http://lishi.tianqi.com/naidong/index.html'
p1406
aS'http://lishi.tianqi.com/naqu/index.html'
p1407
aS'http://lishi.tianqi.com/nima/index.html'
p1408
aS'http://lishi.tianqi.com/nierong/index.html'
p1409
aS'http://lishi.tianqi.com/nangqian/index.html'
p1410
aS'http://lishi.tianqi.com/ningxian/index.html'
p1411
aS'http://lishi.tianqi.com/neihuang/index.html'
p1412
aS'http://lishi.tianqi.com/nanyang/index.html'
p1413
aS'http://lishi.tianqi.com/nanzhao/index.html'
p1414
aS'http://lishi.tianqi.com/neixiang/index.html'
p1415
aS'http://lishi.tianqi.com/ningling/index.html'
p1416
aS'http://lishi.tianqi.com/nanle/index.html'
p1417
aS'http://lishi.tianqi.com/nanjing/index.html'
p1418
aS'http://lishi.tianqi.com/nantong/index.html'
p1419
aS'http://lishi.tianqi.com/nanzhang/index.html'
p1420
aS'http://lishi.tianqi.com/nanhuqu/index.html'
p1421
aS'http://lishi.tianqi.com/ningbo/index.html'
p1422
aS'http://lishi.tianqi.com/ninghai/index.html'
p1423
aS'http://lishi.tianqi.com/nanling/index.html'
p1424
aS'http://lishi.tianqi.com/nanqiaoqu/index.html'
p1425
aS'http://lishi.tianqi.com/ningguo/index.html'
p1426
aS'http://lishi.tianqi.com/ningde/index.html'
p1427
aS'http://lishi.tianqi.com/nanan/index.html'
p1428
aS'http://lishi.tianqi.com/nanjing2/index.html'
p1429
aS'http://lishi.tianqi.com/ninghua/index.html'
p1430
aS'http://lishi.tianqi.com/nanping/index.html'
p1431
aS'http://lishi.tianqi.com/nanchang/index.html'
p1432
aS'http://lishi.tianqi.com/nanchangxian/index.html'
p1433
aS'http://lishi.tianqi.com/nancheng/index.html'
p1434
aS'http://lishi.tianqi.com/nanfeng/index.html'
p1435
aS'http://lishi.tianqi.com/longshi/index.html'
p1436
aS'http://lishi.tianqi.com/nankang/index.html'
p1437
aS'http://lishi.tianqi.com/ningdu/index.html'
p1438
aS'http://lishi.tianqi.com/ningxiang/index.html'
p1439
aS'http://lishi.tianqi.com/nanyue/index.html'
p1440
aS'http://lishi.tianqi.com/nanxian/index.html'
p1441
aS'http://lishi.tianqi.com/ningyuan/index.html'
p1442
aS'http://lishi.tianqi.com/nanming/index.html'
p1443
aS'http://lishi.tianqi.com/nayong/index.html'
p1444
aS'http://lishi.tianqi.com/nanchong/index.html'
p1445
aS'http://lishi.tianqi.com/nanbu/index.html'
p1446
aS'http://lishi.tianqi.com/nanjiang/index.html'
p1447
aS'http://lishi.tianqi.com/naxi/index.html'
p1448
aS'http://lishi.tianqi.com/nanxi/index.html'
p1449
aS'http://lishi.tianqi.com/neijiang/index.html'
p1450
aS'http://lishi.tianqi.com/ningnan/index.html'
p1451
aS'http://lishi.tianqi.com/nuoergai/index.html'
p1452
aS'http://lishi.tianqi.com/nanxiong/index.html'
p1453
aS'http://lishi.tianqi.com/nanao/index.html'
p1454
aS'http://lishi.tianqi.com/luohu/index.html'
p1455
aS'http://lishi.tianqi.com/nanhai/index.html'
p1456
aS'http://lishi.tianqi.com/nanjian/index.html'
p1457
aS'http://lishi.tianqi.com/nanhua/index.html'
p1458
aS'http://lishi.tianqi.com/ninger/index.html'
p1459
aS'http://lishi.tianqi.com/nujiang/index.html'
p1460
aS'http://lishi.tianqi.com/ninglang/index.html'
p1461
aS'http://lishi.tianqi.com/nanning/index.html'
p1462
aS'http://lishi.tianqi.com/ningming/index.html'
p1463
aS'http://lishi.tianqi.com/napo/index.html'
p1464
aS'http://lishi.tianqi.com/nandan/index.html'
p1465
aS'http://lishi.tianqi.com/nanshadao/index.html'
p1466
aS'http://lishi.tianqi.com/nantou/index.html'
p1467
aS'http://lishi.tianqi.com/pinggu/index.html'
p1468
aS'http://lishi.tianqi.com/nanhui/index.html'
p1469
aS'http://lishi.tianqi.com/pudong/index.html'
p1470
aS'http://lishi.tianqi.com/pengshui/index.html'
p1471
aS'http://lishi.tianqi.com/panshi/index.html'
p1472
aS'http://lishi.tianqi.com/pulandian/index.html'
p1473
aS'http://lishi.tianqi.com/panjin/index.html'
p1474
aS'http://lishi.tianqi.com/panshan/index.html'
p1475
aS'http://lishi.tianqi.com/pingshan/index.html'
p1476
aS'http://lishi.tianqi.com/pingquan/index.html'
p1477
aS'http://lishi.tianqi.com/pingxiang/index.html'
p1478
aS'http://lishi.tianqi.com/pingding/index.html'
p1479
aS'http://lishi.tianqi.com/pingyao/index.html'
p1480
aS'http://lishi.tianqi.com/pingshun/index.html'
p1481
aS'http://lishi.tianqi.com/puxian/index.html'
p1482
aS'http://lishi.tianqi.com/pinglu/index.html'
p1483
aS'http://lishi.tianqi.com/pinglu1/index.html'
p1484
aS'http://lishi.tianqi.com/pianguan/index.html'
p1485
aS'http://lishi.tianqi.com/pucheng/index.html'
p1486
aS'http://lishi.tianqi.com/pingli/index.html'
p1487
aS'http://lishi.tianqi.com/pingyin/index.html'
p1488
aS'http://lishi.tianqi.com/pingdu/index.html'
p1489
aS'http://lishi.tianqi.com/pingyuan/index.html'
p1490
aS'http://lishi.tianqi.com/penglai/index.html'
p1491
aS'http://lishi.tianqi.com/pingyi/index.html'
p1492
aS'http://lishi.tianqi.com/paotai/index.html'
p1493
aS'http://lishi.tianqi.com/pishan/index.html'
p1494
aS'http://lishi.tianqi.com/pali/index.html'
p1495
aS'http://lishi.tianqi.com/pulan/index.html'
p1496
aS'http://lishi.tianqi.com/pingan/index.html'
p1497
aS'http://lishi.tianqi.com/pingliang/index.html'
p1498
aS'http://lishi.tianqi.com/pingchuan/index.html'
p1499
aS'http://lishi.tianqi.com/pingluo/index.html'
p1500
aS'http://lishi.tianqi.com/pengyang/index.html'
p1501
aS'http://lishi.tianqi.com/pingdingshan/index.html'
p1502
aS'http://lishi.tianqi.com/puyang/index.html'
p1503
aS'http://lishi.tianqi.com/pingyu/index.html'
p1504
aS'http://lishi.tianqi.com/pukou/index.html'
p1505
aS'http://lishi.tianqi.com/peixian/index.html'
p1506
aS'http://lishi.tianqi.com/pizhou/index.html'
p1507
aS'http://lishi.tianqi.com/pinghu/index.html'
p1508
aS'http://lishi.tianqi.com/pingyang/index.html'
p1509
aS'http://lishi.tianqi.com/pujiang/index.html'
p1510
aS'http://lishi.tianqi.com/panan/index.html'
p1511
aS'http://lishi.tianqi.com/putuo/index.html'
p1512
aS'http://lishi.tianqi.com/panji/index.html'
p1513
aS'http://lishi.tianqi.com/pingtan/index.html'
p1514
aS'http://lishi.tianqi.com/pingnan/index.html'
p1515
aS'http://lishi.tianqi.com/putian/index.html'
p1516
aS'http://lishi.tianqi.com/pinghe/index.html'
p1517
aS'http://lishi.tianqi.com/pucheng1/index.html'
p1518
aS'http://lishi.tianqi.com/pengze/index.html'
p1519
aS'http://lishi.tianqi.com/poyang/index.html'
p1520
aS'http://lishi.tianqi.com/pingxiang1/index.html'
p1521
aS'http://lishi.tianqi.com/pingjiang/index.html'
p1522
aS'http://lishi.tianqi.com/puding/index.html'
p1523
aS'http://lishi.tianqi.com/pingba/index.html'
p1524
aS'http://lishi.tianqi.com/pingtang/index.html'
p1525
aS'http://lishi.tianqi.com/panxian/index.html'
p1526
aS'http://lishi.tianqi.com/puan/index.html'
p1527
aS'http://lishi.tianqi.com/pixian/index.html'
p1528
aS'http://lishi.tianqi.com/pujiang1/index.html'
p1529
aS'http://lishi.tianqi.com/pengzhou/index.html'
p1530
aS'http://lishi.tianqi.com/panzhihua/index.html'
p1531
aS'http://lishi.tianqi.com/pingwu/index.html'
p1532
aS'http://lishi.tianqi.com/pengan/index.html'
p1533
aS'http://lishi.tianqi.com/pengxi/index.html'
p1534
aS'http://lishi.tianqi.com/pingchang/index.html'
p1535
aS'http://lishi.tianqi.com/pingshan1/index.html'
p1536
aS'http://lishi.tianqi.com/pengshan/index.html'
p1537
aS'http://lishi.tianqi.com/puge/index.html'
p1538
aS'http://lishi.tianqi.com/panyu/index.html'
p1539
aS'http://lishi.tianqi.com/pingyuan1/index.html'
p1540
aS'http://lishi.tianqi.com/potou/index.html'
p1541
aS'http://lishi.tianqi.com/pengjiang/index.html'
p1542
aS'http://lishi.tianqi.com/puning/index.html'
p1543
aS'http://lishi.tianqi.com/panlong/index.html'
p1544
aS'http://lishi.tianqi.com/pingbian/index.html'
p1545
aS'http://lishi.tianqi.com/puer/index.html'
p1546
aS'http://lishi.tianqi.com/pingxiang2/index.html'
p1547
aS'http://lishi.tianqi.com/pingle/index.html'
p1548
aS'http://lishi.tianqi.com/pingguiqu/index.html'
p1549
aS'http://lishi.tianqi.com/pingnan1/index.html'
p1550
aS'http://lishi.tianqi.com/pingguo/index.html'
p1551
aS'http://lishi.tianqi.com/pubei/index.html'
p1552
aS'http://lishi.tianqi.com/pingdong/index.html'
p1553
aS'http://lishi.tianqi.com/qingpu/index.html'
p1554
aS'http://lishi.tianqi.com/qianjiang/index.html'
p1555
aS'http://lishi.tianqi.com/qijiang/index.html'
p1556
aS'http://lishi.tianqi.com/qiqihaer/index.html'
p1557
aS'http://lishi.tianqi.com/qinggang/index.html'
p1558
aS'http://lishi.tianqi.com/qingan/index.html'
p1559
aS'http://lishi.tianqi.com/qitaihe/index.html'
p1560
aS'http://lishi.tianqi.com/qianan/index.html'
p1561
aS'http://lishi.tianqi.com/qianguo/index.html'
p1562
aS'http://lishi.tianqi.com/qingyuan/index.html'
p1563
aS'http://lishi.tianqi.com/qingshuihe/index.html'
p1564
aS'http://lishi.tianqi.com/qingshanqu/index.html'
p1565
aS'http://lishi.tianqi.com/qinglongshan/index.html'
p1566
aS'http://lishi.tianqi.com/qiaodongqu/index.html'
p1567
aS'http://lishi.tianqi.com/qiaoxiqu/index.html'
p1568
aS'http://lishi.tianqi.com/quyang/index.html'
p1569
aS'http://lishi.tianqi.com/qingyuan1/index.html'
p1570
aS'http://lishi.tianqi.com/qiaodong/index.html'
p1571
aS'http://lishi.tianqi.com/qiaoxi/index.html'
p1572
aS'http://lishi.tianqi.com/qianxi/index.html'
p1573
aS'http://lishi.tianqi.com/qianan1/index.html'
p1574
aS'http://lishi.tianqi.com/qingxian/index.html'
p1575
aS'http://lishi.tianqi.com/qinghe/index.html'
p1576
aS'http://lishi.tianqi.com/qiuxian/index.html'
p1577
aS'http://lishi.tianqi.com/quzhou/index.html'
p1578
aS'http://lishi.tianqi.com/qinhuangdao/index.html'
p1579
aS'http://lishi.tianqi.com/qinglong/index.html'
p1580
aS'http://lishi.tianqi.com/qingxu/index.html'
p1581
aS'http://lishi.tianqi.com/qixian/index.html'
p1582
aS'http://lishi.tianqi.com/qinxian/index.html'
p1583
aS'http://lishi.tianqi.com/qinyuan/index.html'
p1584
aS'http://lishi.tianqi.com/qinshui/index.html'
p1585
aS'http://lishi.tianqi.com/quwo/index.html'
p1586
aS'http://lishi.tianqi.com/qianxian/index.html'
p1587
aS'http://lishi.tianqi.com/qingjian/index.html'
p1588
aS'http://lishi.tianqi.com/qianyang/index.html'
p1589
aS'http://lishi.tianqi.com/qishan/index.html'
p1590
aS'http://lishi.tianqi.com/qingdao/index.html'
p1591
aS'http://lishi.tianqi.com/qihe/index.html'
p1592
aS'http://lishi.tianqi.com/qingyun/index.html'
p1593
aS'http://lishi.tianqi.com/qixia/index.html'
p1594
aS'http://lishi.tianqi.com/qingzhou/index.html'
p1595
aS'http://lishi.tianqi.com/qufu/index.html'
p1596
aS'http://lishi.tianqi.com/qitai/index.html'
p1597
aS'http://lishi.tianqi.com/qiemo/index.html'
p1598
aS'http://lishi.tianqi.com/qinghe1/index.html'
p1599
aS'http://lishi.tianqi.com/qushui/index.html'
p1600
aS'http://lishi.tianqi.com/qiongjie/index.html'
p1601
aS'http://lishi.tianqi.com/qusong/index.html'
p1602
aS'http://lishi.tianqi.com/qumacai/index.html'
p1603
aS'http://lishi.tianqi.com/qilian/index.html'
p1604
aS'http://lishi.tianqi.com/qingcheng/index.html'
p1605
aS'http://lishi.tianqi.com/qingshui/index.html'
p1606
aS'http://lishi.tianqi.com/qinan/index.html'
p1607
aS'http://lishi.tianqi.com/qingtongxia/index.html'
p1608
aS'http://lishi.tianqi.com/qixian1/index.html'
p1609
aS'http://lishi.tianqi.com/qinyang/index.html'
p1610
aS'http://lishi.tianqi.com/qixian2/index.html'
p1611
aS'http://lishi.tianqi.com/qibinqu/index.html'
p1612
aS'http://lishi.tianqi.com/qingfeng/index.html'
p1613
aS'http://lishi.tianqi.com/queshan/index.html'
p1614
aS'http://lishi.tianqi.com/qidong/index.html'
p1615
aS'http://lishi.tianqi.com/qingpuqu/index.html'
p1616
aS'http://lishi.tianqi.com/qichun/index.html'
p1617
aS'http://lishi.tianqi.com/qianjiang1/index.html'
p1618
aS'http://lishi.tianqi.com/qingtian/index.html'
p1619
aS'http://lishi.tianqi.com/qingyuan2/index.html'
p1620
aS'http://lishi.tianqi.com/quzhou1/index.html'
p1621
aS'http://lishi.tianqi.com/qujiang1/index.html'
p1622
aS'http://lishi.tianqi.com/qianshan/index.html'
p1623
aS'http://lishi.tianqi.com/qimen/index.html'
p1624
aS'http://lishi.tianqi.com/quanjiao/index.html'
p1625
aS'http://lishi.tianqi.com/qingyang1/index.html'
p1626
aS'http://lishi.tianqi.com/quanzhou/index.html'
p1627
aS'http://lishi.tianqi.com/quangangqu/index.html'
p1628
aS'http://lishi.tianqi.com/qingliu/index.html'
p1629
aS'http://lishi.tianqi.com/quannan/index.html'
p1630
aS'http://lishi.tianqi.com/qidong1/index.html'
p1631
aS'http://lishi.tianqi.com/qiyang/index.html'
p1632
aS'http://lishi.tianqi.com/qingzhen/index.html'
p1633
aS'http://lishi.tianqi.com/qianxi1/index.html'
p1634
aS'http://lishi.tianqi.com/qinglong1/index.html'
p1635
aS'http://lishi.tianqi.com/qionglai/index.html'
p1636
aS'http://lishi.tianqi.com/quxian/index.html'
p1637
aS'http://lishi.tianqi.com/qianwei/index.html'
p1638
aS'http://lishi.tianqi.com/qingshen/index.html'
p1639
aS'http://lishi.tianqi.com/qingchuan/index.html'
p1640
aS'http://lishi.tianqi.com/qujiang/index.html'
p1641
aS'http://lishi.tianqi.com/qingyuan3/index.html'
p1642
aS'http://lishi.tianqi.com/qingxin/index.html'
p1643
aS'http://lishi.tianqi.com/qujing/index.html'
p1644
aS'http://lishi.tianqi.com/qiubei/index.html'
p1645
aS'http://lishi.tianqi.com/qiaojia/index.html'
p1646
aS'http://lishi.tianqi.com/quanzhou3/index.html'
p1647
aS'http://lishi.tianqi.com/qinzhou/index.html'
p1648
aS'http://lishi.tianqi.com/qiongzhong/index.html'
p1649
aS'http://lishi.tianqi.com/qionghai/index.html'
p1650
aS'http://lishi.tianqi.com/rongchang/index.html'
p1651
aS'http://lishi.tianqi.com/raohe/index.html'
p1652
aS'http://lishi.tianqi.com/rongcheng/index.html'
p1653
aS'http://lishi.tianqi.com/renqiu/index.html'
p1654
aS'http://lishi.tianqi.com/raoyang/index.html'
p1655
aS'http://lishi.tianqi.com/renxian/index.html'
p1656
aS'http://lishi.tianqi.com/ruicheng/index.html'
p1657
aS'http://lishi.tianqi.com/rongcheng2/index.html'
p1658
aS'http://lishi.tianqi.com/rushan/index.html'
p1659
aS'http://lishi.tianqi.com/rizhao/index.html'
p1660
aS'http://lishi.tianqi.com/ruoqiang/index.html'
p1661
aS'http://lishi.tianqi.com/rikaze/index.html'
p1662
aS'http://lishi.tianqi.com/renbu/index.html'
p1663
aS'http://lishi.tianqi.com/ritu/index.html'
p1664
aS'http://lishi.tianqi.com/ruzhou/index.html'
p1665
aS'http://lishi.tianqi.com/ruyang/index.html'
p1666
aS'http://lishi.tianqi.com/runan/index.html'
p1667
aS'http://lishi.tianqi.com/rugao/index.html'
p1668
aS'http://lishi.tianqi.com/rudong/index.html'
p1669
aS'http://lishi.tianqi.com/ruian/index.html'
p1670
aS'http://lishi.tianqi.com/ruichang/index.html'
p1671
aS'http://lishi.tianqi.com/ruijin/index.html'
p1672
aS'http://lishi.tianqi.com/rucheng/index.html'
p1673
aS'http://lishi.tianqi.com/renhuai/index.html'
p1674
aS'http://lishi.tianqi.com/rongjiang/index.html'
p1675
aS'http://lishi.tianqi.com/renhe/index.html'
p1676
aS'http://lishi.tianqi.com/rongxian/index.html'
p1677
aS'http://lishi.tianqi.com/renshou/index.html'
p1678
aS'http://lishi.tianqi.com/rangtang/index.html'
p1679
aS'http://lishi.tianqi.com/ruyuan/index.html'
p1680
aS'http://lishi.tianqi.com/renhua/index.html'
p1681
aS'http://lishi.tianqi.com/raoping/index.html'
p1682
aS'http://lishi.tianqi.com/ruili/index.html'
p1683
aS'http://lishi.tianqi.com/rongan/index.html'
p1684
aS'http://lishi.tianqi.com/rongshui/index.html'
p1685
aS'http://lishi.tianqi.com/rongxian1/index.html'
p1686
aS'http://lishi.tianqi.com/shunyi/index.html'
p1687
aS'http://lishi.tianqi.com/shijingshan/index.html'
p1688
aS'http://lishi.tianqi.com/shanghai/index.html'
p1689
aS'http://lishi.tianqi.com/songjiang/index.html'
p1690
aS'http://lishi.tianqi.com/shizhu/index.html'
p1691
aS'http://lishi.tianqi.com/shuangcheng/index.html'
p1692
aS'http://lishi.tianqi.com/shangzhi/index.html'
p1693
aS'http://lishi.tianqi.com/suifenhe/index.html'
p1694
aS'http://lishi.tianqi.com/suihua/index.html'
p1695
aS'http://lishi.tianqi.com/suiling/index.html'
p1696
aS'http://lishi.tianqi.com/sunwu/index.html'
p1697
aS'http://lishi.tianqi.com/sartuqu/index.html'
p1698
aS'http://lishi.tianqi.com/suibin/index.html'
p1699
aS'http://lishi.tianqi.com/shuangyashan/index.html'
p1700
aS'http://lishi.tianqi.com/shuangyang/index.html'
p1701
aS'http://lishi.tianqi.com/shulan/index.html'
p1702
aS'http://lishi.tianqi.com/siping/index.html'
p1703
aS'http://lishi.tianqi.com/shuangliao/index.html'
p1704
aS'http://lishi.tianqi.com/songyuan/index.html'
p1705
aS'http://lishi.tianqi.com/shenyang/index.html'
p1706
aS'http://lishi.tianqi.com/shahekouqu/index.html'
p1707
aS'http://lishi.tianqi.com/suizhong/index.html'
p1708
aS'http://lishi.tianqi.com/shangdu/index.html'
p1709
aS'http://lishi.tianqi.com/siziwangqi/index.html'
p1710
aS'http://lishi.tianqi.com/shebotu/index.html'
p1711
aS'http://lishi.tianqi.com/suzuoqi/index.html'
p1712
aS'http://lishi.tianqi.com/suyouqi/index.html'
p1713
aS'http://lishi.tianqi.com/suolun/index.html'
p1714
aS'http://lishi.tianqi.com/shijiazhuang/index.html'
p1715
aS'http://lishi.tianqi.com/shenze/index.html'
p1716
aS'http://lishi.tianqi.com/shunping/index.html'
p1717
aS'http://lishi.tianqi.com/shangyi/index.html'
p1718
aS'http://lishi.tianqi.com/shuangqiaoqu/index.html'
p1719
aS'http://lishi.tianqi.com/shuangluanqu/index.html'
p1720
aS'http://lishi.tianqi.com/sanhe/index.html'
p1721
aS'http://lishi.tianqi.com/suning/index.html'
p1722
aS'http://lishi.tianqi.com/shenzhou/index.html'
p1723
aS'http://lishi.tianqi.com/shahe/index.html'
p1724
aS'http://lishi.tianqi.com/shexian/index.html'
p1725
aS'http://lishi.tianqi.com/shouyang/index.html'
p1726
aS'http://lishi.tianqi.com/shuozhou/index.html'
p1727
aS'http://lishi.tianqi.com/shanyin/index.html'
p1728
aS'http://lishi.tianqi.com/shenchi/index.html'
p1729
aS'http://lishi.tianqi.com/shilou/index.html'
p1730
aS'http://lishi.tianqi.com/sanyuan/index.html'
p1731
aS'http://lishi.tianqi.com/shenmu/index.html'
p1732
aS'http://lishi.tianqi.com/suide/index.html'
p1733
aS'http://lishi.tianqi.com/shangluo/index.html'
p1734
aS'http://lishi.tianqi.com/shangzhou/index.html'
p1735
aS'http://lishi.tianqi.com/shangnan/index.html'
p1736
aS'http://lishi.tianqi.com/shanyang/index.html'
p1737
aS'http://lishi.tianqi.com/shiquan/index.html'
p1738
aS'http://lishi.tianqi.com/shanghe/index.html'
p1739
aS'http://lishi.tianqi.com/sifangqu/index.html'
p1740
aS'http://lishi.tianqi.com/shouguang/index.html'
p1741
aS'http://lishi.tianqi.com/sishui/index.html'
p1742
aS'http://lishi.tianqi.com/shanxian/index.html'
p1743
aS'http://lishi.tianqi.com/shidao/index.html'
p1744
aS'http://lishi.tianqi.com/shenxian/index.html'
p1745
aS'http://lishi.tianqi.com/shihezi/index.html'
p1746
aS'http://lishi.tianqi.com/shanshan/index.html'
p1747
aS'http://lishi.tianqi.com/shaya/index.html'
p1748
aS'http://lishi.tianqi.com/shache/index.html'
p1749
aS'http://lishi.tianqi.com/shufu/index.html'
p1750
aS'http://lishi.tianqi.com/shule/index.html'
p1751
aS'http://lishi.tianqi.com/shawan/index.html'
p1752
aS'http://lishi.tianqi.com/saga/index.html'
p1753
aS'http://lishi.tianqi.com/sajia/index.html'
p1754
aS'http://lishi.tianqi.com/shannan/index.html'
p1755
aS'http://lishi.tianqi.com/sangri/index.html'
p1756
aS'http://lishi.tianqi.com/suoxian/index.html'
p1757
aS'http://lishi.tianqi.com/shuanghu/index.html'
p1758
aS'http://lishi.tianqi.com/shenzha/index.html'
p1759
aS'http://lishi.tianqi.com/shiquanhe/index.html'
p1760
aS'http://lishi.tianqi.com/sunan/index.html'
p1761
aS'http://lishi.tianqi.com/shandan/index.html'
p1762
aS'http://lishi.tianqi.com/subei/index.html'
p1763
aS'http://lishi.tianqi.com/shizuishan/index.html'
p1764
aS'http://lishi.tianqi.com/shangjie/index.html'
p1765
aS'http://lishi.tianqi.com/shilong/index.html'
p1766
aS'http://lishi.tianqi.com/shangcheng/index.html'
p1767
aS'http://lishi.tianqi.com/sheqi/index.html'
p1768
aS'http://lishi.tianqi.com/songxian/index.html'
p1769
aS'http://lishi.tianqi.com/shangqiu/index.html'
p1770
aS'http://lishi.tianqi.com/suixian/index.html'
p1771
aS'http://lishi.tianqi.com/shangshui/index.html'
p1772
aS'http://lishi.tianqi.com/shenqiu/index.html'
p1773
aS'http://lishi.tianqi.com/suiping/index.html'
p1774
aS'http://lishi.tianqi.com/shangcai/index.html'
p1775
aS'http://lishi.tianqi.com/sanmenxia/index.html'
p1776
aS'http://lishi.tianqi.com/shanxian1/index.html'
p1777
aS'http://lishi.tianqi.com/suzhou/index.html'
p1778
aS'http://lishi.tianqi.com/sheyang/index.html'
p1779
aS'http://lishi.tianqi.com/suining2/index.html'
p1780
aS'http://lishi.tianqi.com/suqian/index.html'
p1781
aS'http://lishi.tianqi.com/shuyang/index.html'
p1782
aS'http://lishi.tianqi.com/siyang/index.html'
p1783
aS'http://lishi.tianqi.com/sihong/index.html'
p1784
aS'http://lishi.tianqi.com/suyu/index.html'
p1785
aS'http://lishi.tianqi.com/shishou/index.html'
p1786
aS'http://lishi.tianqi.com/songzi/index.html'
p1787
aS'http://lishi.tianqi.com/sanxia/index.html'
p1788
aS'http://lishi.tianqi.com/shiyan/index.html'
p1789
aS'http://lishi.tianqi.com/shennongjia/index.html'
p1790
aS'http://lishi.tianqi.com/suizhou/index.html'
p1791
aS'http://lishi.tianqi.com/shayang/index.html'
p1792
aS'http://lishi.tianqi.com/shashi/index.html'
p1793
aS'http://lishi.tianqi.com/shaoxing/index.html'
p1794
aS'http://lishi.tianqi.com/shangyu/index.html'
p1795
aS'http://lishi.tianqi.com/shengzhou/index.html'
p1796
aS'http://lishi.tianqi.com/sanmen/index.html'
p1797
aS'http://lishi.tianqi.com/suichang/index.html'
p1798
aS'http://lishi.tianqi.com/songyang/index.html'
p1799
aS'http://lishi.tianqi.com/shengsi/index.html'
p1800
aS'http://lishi.tianqi.com/susong/index.html'
p1801
aS'http://lishi.tianqi.com/suzhou1/index.html'
p1802
aS'http://lishi.tianqi.com/sixian/index.html'
p1803
aS'http://lishi.tianqi.com/shexian2/index.html'
p1804
aS'http://lishi.tianqi.com/suixi/index.html'
p1805
aS'http://lishi.tianqi.com/shouxian/index.html'
p1806
aS'http://lishi.tianqi.com/shucheng/index.html'
p1807
aS'http://lishi.tianqi.com/shitai/index.html'
p1808
aS'http://lishi.tianqi.com/shouning/index.html'
p1809
aS'http://lishi.tianqi.com/shishi/index.html'
p1810
aS'http://lishi.tianqi.com/shanghang/index.html'
p1811
aS'http://lishi.tianqi.com/sanming/index.html'
p1812
aS'http://lishi.tianqi.com/shaxian1/index.html'
p1813
aS'http://lishi.tianqi.com/shunchang/index.html'
p1814
aS'http://lishi.tianqi.com/shaowu/index.html'
p1815
aS'http://lishi.tianqi.com/songxi/index.html'
p1816
aS'http://lishi.tianqi.com/shangrao/index.html'
p1817
aS'http://lishi.tianqi.com/shangraoxian/index.html'
p1818
aS'http://lishi.tianqi.com/shanggao/index.html'
p1819
aS'http://lishi.tianqi.com/suichuan/index.html'
p1820
aS'http://lishi.tianqi.com/shangyou/index.html'
p1821
aS'http://lishi.tianqi.com/shicheng/index.html'
p1822
aS'http://lishi.tianqi.com/shangli/index.html'
p1823
aS'http://lishi.tianqi.com/shaoshan/index.html'
p1824
aS'http://lishi.tianqi.com/suxian/index.html'
p1825
aS'http://lishi.tianqi.com/shimen/index.html'
p1826
aS'http://lishi.tianqi.com/shuangfeng/index.html'
p1827
aS'http://lishi.tianqi.com/shaoyang/index.html'
p1828
aS'http://lishi.tianqi.com/shaodong/index.html'
p1829
aS'http://lishi.tianqi.com/suining/index.html'
p1830
aS'http://lishi.tianqi.com/shaoyangxian/index.html'
p1831
aS'http://lishi.tianqi.com/shuangqingqu/index.html'
p1832
aS'http://lishi.tianqi.com/sangzhi/index.html'
p1833
aS'http://lishi.tianqi.com/shuangpai/index.html'
p1834
aS'http://lishi.tianqi.com/suiyang/index.html'
p1835
aS'http://lishi.tianqi.com/sandu/index.html'
p1836
aS'http://lishi.tianqi.com/shibing/index.html'
p1837
aS'http://lishi.tianqi.com/sansui/index.html'
p1838
aS'http://lishi.tianqi.com/sinan/index.html'
p1839
aS'http://lishi.tianqi.com/shiqian/index.html'
p1840
aS'http://lishi.tianqi.com/songtao/index.html'
p1841
aS'http://lishi.tianqi.com/shuicheng/index.html'
p1842
aS'http://lishi.tianqi.com/shuangliu/index.html'
p1843
aS'http://lishi.tianqi.com/santai/index.html'
p1844
aS'http://lishi.tianqi.com/suining1/index.html'
p1845
aS'http://lishi.tianqi.com/shehong/index.html'
p1846
aS'http://lishi.tianqi.com/shimian/index.html'
p1847
aS'http://lishi.tianqi.com/shiqu/index.html'
p1848
aS'http://lishi.tianqi.com/seda/index.html'
p1849
aS'http://lishi.tianqi.com/songpan/index.html'
p1850
aS'http://lishi.tianqi.com/shifang/index.html'
p1851
aS'http://lishi.tianqi.com/shaoguan/index.html'
p1852
aS'http://lishi.tianqi.com/shixing/index.html'
p1853
aS'http://lishi.tianqi.com/shantou/index.html'
p1854
aS'http://lishi.tianqi.com/shenzhen/index.html'
p1855
aS'http://lishi.tianqi.com/shunde/index.html'
p1856
aS'http://lishi.tianqi.com/sanshui/index.html'
p1857
aS'http://lishi.tianqi.com/sihui/index.html'
p1858
aS'http://lishi.tianqi.com/suixi1/index.html'
p1859
aS'http://lishi.tianqi.com/shanwei/index.html'
p1860
aS'http://lishi.tianqi.com/shilin/index.html'
p1861
aS'http://lishi.tianqi.com/songming/index.html'
p1862
aS'http://lishi.tianqi.com/shiping/index.html'
p1863
aS'http://lishi.tianqi.com/shizong/index.html'
p1864
aS'http://lishi.tianqi.com/sidian/index.html'
p1865
aS'http://lishi.tianqi.com/shuangbai/index.html'
p1866
aS'http://lishi.tianqi.com/simao/index.html'
p1867
aS'http://lishi.tianqi.com/suijiang/index.html'
p1868
aS'http://lishi.tianqi.com/shuifu/index.html'
p1869
aS'http://lishi.tianqi.com/shuangjiang/index.html'
p1870
aS'http://lishi.tianqi.com/shanglin/index.html'
p1871
aS'http://lishi.tianqi.com/sanjiang/index.html'
p1872
aS'http://lishi.tianqi.com/shangsi/index.html'
p1873
aS'http://lishi.tianqi.com/sanya/index.html'
p1874
aS'http://lishi.tianqi.com/tongzhou/index.html'
p1875
aS'http://lishi.tianqi.com/tianjin/index.html'
p1876
aS'http://lishi.tianqi.com/tanggu/index.html'
p1877
aS'http://lishi.tianqi.com/tongnan/index.html'
p1878
aS'http://lishi.tianqi.com/tongliang/index.html'
p1879
aS'http://lishi.tianqi.com/tonghe/index.html'
p1880
aS'http://lishi.tianqi.com/tailai/index.html'
p1881
aS'http://lishi.tianqi.com/tangyuan/index.html'
p1882
aS'http://lishi.tianqi.com/tongjiang/index.html'
p1883
aS'http://lishi.tianqi.com/tahe/index.html'
p1884
aS'http://lishi.tianqi.com/tieli/index.html'
p1885
aS'http://lishi.tianqi.com/tumen/index.html'
p1886
aS'http://lishi.tianqi.com/tonghua/index.html'
p1887
aS'http://lishi.tianqi.com/tonghuaxian/index.html'
p1888
aS'http://lishi.tianqi.com/taonan/index.html'
p1889
aS'http://lishi.tianqi.com/tongyu/index.html'
p1890
aS'http://lishi.tianqi.com/taian/index.html'
p1891
aS'http://lishi.tianqi.com/tieling/index.html'
p1892
aS'http://lishi.tianqi.com/tuzuoqi/index.html'
p1893
aS'http://lishi.tianqi.com/tuoxian/index.html'
p1894
aS'http://lishi.tianqi.com/tuyouqi/index.html'
p1895
aS'http://lishi.tianqi.com/tongliao/index.html'
p1896
aS'http://lishi.tianqi.com/taibusiqi/index.html'
p1897
aS'http://lishi.tianqi.com/tulihe/index.html'
p1898
aS'http://lishi.tianqi.com/tuquan/index.html'
p1899
aS'http://lishi.tianqi.com/toudaohu/index.html'
p1900
aS'http://lishi.tianqi.com/tangxian/index.html'
p1901
aS'http://lishi.tianqi.com/tangshan/index.html'
p1902
aS'http://lishi.tianqi.com/tanghai/index.html'
p1903
aS'http://lishi.tianqi.com/taochengqu/index.html'
p1904
aS'http://lishi.tianqi.com/taiyuan/index.html'
p1905
aS'http://lishi.tianqi.com/tianzhen/index.html'
p1906
aS'http://lishi.tianqi.com/taigu/index.html'
p1907
aS'http://lishi.tianqi.com/tunliu/index.html'
p1908
aS'http://lishi.tianqi.com/tongguan/index.html'
p1909
aS'http://lishi.tianqi.com/taibai/index.html'
p1910
aS'http://lishi.tianqi.com/tongchuan/index.html'
p1911
aS'http://lishi.tianqi.com/taian1/index.html'
p1912
aS'http://lishi.tianqi.com/tancheng/index.html'
p1913
aS'http://lishi.tianqi.com/taierzhuang/index.html'
p1914
aS'http://lishi.tianqi.com/tengzhou/index.html'
p1915
aS'http://lishi.tianqi.com/tianchi/index.html'
p1916
aS'http://lishi.tianqi.com/tulufan/index.html'
p1917
aS'http://lishi.tianqi.com/tuokexun/index.html'
p1918
aS'http://lishi.tianqi.com/tieganlike/index.html'
p1919
aS'http://lishi.tianqi.com/tazhong/index.html'
p1920
aS'http://lishi.tianqi.com/tashikuergan/index.html'
p1921
aS'http://lishi.tianqi.com/tekesi/index.html'
p1922
aS'http://lishi.tianqi.com/tacheng/index.html'
p1923
aS'http://lishi.tianqi.com/tuoli/index.html'
p1924
aS'http://lishi.tianqi.com/tongren1/index.html'
p1925
aS'http://lishi.tianqi.com/tongde/index.html'
p1926
aS'http://lishi.tianqi.com/tianjun/index.html'
p1927
aS'http://lishi.tianqi.com/tongwei/index.html'
p1928
aS'http://lishi.tianqi.com/tianzhu/index.html'
p1929
aS'http://lishi.tianqi.com/tianshui/index.html'
p1930
aS'http://lishi.tianqi.com/taole/index.html'
p1931
aS'http://lishi.tianqi.com/tongxin/index.html'
p1932
aS'http://lishi.tianqi.com/tangyin/index.html'
p1933
aS'http://lishi.tianqi.com/tanghe/index.html'
p1934
aS'http://lishi.tianqi.com/tongbai/index.html'
p1935
aS'http://lishi.tianqi.com/tongxu/index.html'
p1936
aS'http://lishi.tianqi.com/taiqian/index.html'
p1937
aS'http://lishi.tianqi.com/taikang/index.html'
p1938
aS'http://lishi.tianqi.com/taicang/index.html'
p1939
aS'http://lishi.tianqi.com/tongzhou1/index.html'
p1940
aS'http://lishi.tianqi.com/tongshan1/index.html'
p1941
aS'http://lishi.tianqi.com/taizhou2/index.html'
p1942
aS'http://lishi.tianqi.com/taixing/index.html'
p1943
aS'http://lishi.tianqi.com/tuanfeng/index.html'
p1944
aS'http://lishi.tianqi.com/tieshan/index.html'
p1945
aS'http://lishi.tianqi.com/tongcheng/index.html'
p1946
aS'http://lishi.tianqi.com/tongshan/index.html'
p1947
aS'http://lishi.tianqi.com/tianmen/index.html'
p1948
aS'http://lishi.tianqi.com/tonglu/index.html'
p1949
aS'http://lishi.tianqi.com/tongxiang/index.html'
p1950
aS'http://lishi.tianqi.com/taizhou/index.html'
p1951
aS'http://lishi.tianqi.com/tiantai/index.html'
p1952
aS'http://lishi.tianqi.com/taishun/index.html'
p1953
aS'http://lishi.tianqi.com/taihu/index.html'
p1954
aS'http://lishi.tianqi.com/tongcheng1/index.html'
p1955
aS'http://lishi.tianqi.com/taihe/index.html'
p1956
aS'http://lishi.tianqi.com/tunxi/index.html'
p1957
aS'http://lishi.tianqi.com/tianchang/index.html'
p1958
aS'http://lishi.tianqi.com/tongling/index.html'
p1959
aS'http://lishi.tianqi.com/tongan/index.html'
p1960
aS'http://lishi.tianqi.com/taining/index.html'
p1961
aS'http://lishi.tianqi.com/tonggu/index.html'
p1962
aS'http://lishi.tianqi.com/taihe1/index.html'
p1963
aS'http://lishi.tianqi.com/taoyuan/index.html'
p1964
aS'http://lishi.tianqi.com/taojiang/index.html'
p1965
aS'http://lishi.tianqi.com/tongdao/index.html'
p1966
aS'http://lishi.tianqi.com/tongzi/index.html'
p1967
aS'http://lishi.tianqi.com/taijiang/index.html'
p1968
aS'http://lishi.tianqi.com/tianzhu1/index.html'
p1969
aS'http://lishi.tianqi.com/tongren/index.html'
p1970
aS'http://lishi.tianqi.com/tongjiang1/index.html'
p1971
aS'http://lishi.tianqi.com/tianquan/index.html'
p1972
aS'http://lishi.tianqi.com/taishan/index.html'
p1973
aS'http://lishi.tianqi.com/taihuashan/index.html'
p1974
aS'http://lishi.tianqi.com/tengchong/index.html'
p1975
aS'http://lishi.tianqi.com/tonghai/index.html'
p1976
aS'http://lishi.tianqi.com/tiandeng/index.html'
p1977
aS'http://lishi.tianqi.com/tengxian/index.html'
p1978
aS'http://lishi.tianqi.com/tianyang/index.html'
p1979
aS'http://lishi.tianqi.com/tiandong/index.html'
p1980
aS'http://lishi.tianqi.com/tianlin/index.html'
p1981
aS'http://lishi.tianqi.com/tiane/index.html'
p1982
aS'http://lishi.tianqi.com/tunchang/index.html'
p1983
aS'http://lishi.tianqi.com/taibei/index.html'
p1984
aS'http://lishi.tianqi.com/taoyuan1/index.html'
p1985
aS'http://lishi.tianqi.com/tainan/index.html'
p1986
aS'http://lishi.tianqi.com/taidong/index.html'
p1987
aS'http://lishi.tianqi.com/taizhong/index.html'
p1988
aS'http://lishi.tianqi.com/wuqing/index.html'
p1989
aS'http://lishi.tianqi.com/wansheng/index.html'
p1990
aS'http://lishi.tianqi.com/wanzhou/index.html'
p1991
aS'http://lishi.tianqi.com/wuxi/index.html'
p1992
aS'http://lishi.tianqi.com/wushan/index.html'
p1993
aS'http://lishi.tianqi.com/wulong/index.html'
p1994
aS'http://lishi.tianqi.com/wuchang/index.html'
p1995
aS'http://lishi.tianqi.com/wangkui/index.html'
p1996
aS'http://lishi.tianqi.com/wudalianchi/index.html'
p1997
aS'http://lishi.tianqi.com/wuyiling/index.html'
p1998
aS'http://lishi.tianqi.com/wuying/index.html'
p1999
aS'http://lishi.tianqi.com/wangqing/index.html'
p2000
aS'http://lishi.tianqi.com/wafangdian/index.html'
p2001
aS'http://lishi.tianqi.com/wuchuan/index.html'
p2002
aS'http://lishi.tianqi.com/wuhai/index.html'
p2003
aS'http://lishi.tianqi.com/wengniute/index.html'
p2004
aS'http://lishi.tianqi.com/wushenqi/index.html'
p2005
aS'http://lishi.tianqi.com/wushenzhao/index.html'
p2006
aS'http://lishi.tianqi.com/wuyuan/index.html'
p2007
aS'http://lishi.tianqi.com/wuqianqi/index.html'
p2008
aS'http://lishi.tianqi.com/wuzhongqi/index.html'
p2009
aS'http://lishi.tianqi.com/wuhouqi/index.html'
p2010
aS'http://lishi.tianqi.com/wulagai/index.html'
p2011
aS'http://lishi.tianqi.com/wulanhaote/index.html'
p2012
aS'http://lishi.tianqi.com/wusitai/index.html'
p2013
aS'http://lishi.tianqi.com/wuji/index.html'
p2014
aS'http://lishi.tianqi.com/wangdu/index.html'
p2015
aS'http://lishi.tianqi.com/wanquan/index.html'
p2016
aS'http://lishi.tianqi.com/weichang/index.html'
p2017
aS'http://lishi.tianqi.com/wenan/index.html'
p2018
aS'http://lishi.tianqi.com/wuqiao/index.html'
p2019
aS'http://lishi.tianqi.com/wuyi/index.html'
p2020
aS'http://lishi.tianqi.com/wuqiang/index.html'
p2021
aS'http://lishi.tianqi.com/weixian1/index.html'
p2022
aS'http://lishi.tianqi.com/weixian/index.html'
p2023
aS'http://lishi.tianqi.com/wuan/index.html'
p2024
aS'http://lishi.tianqi.com/wuxiang/index.html'
p2025
aS'http://lishi.tianqi.com/wanrong/index.html'
p2026
aS'http://lishi.tianqi.com/wenxi/index.html'
p2027
aS'http://lishi.tianqi.com/wutaixian/index.html'
p2028
aS'http://lishi.tianqi.com/wutaishan/index.html'
p2029
aS'http://lishi.tianqi.com/wuzhai/index.html'
p2030
aS'http://lishi.tianqi.com/wenshui/index.html'
p2031
aS'http://lishi.tianqi.com/wugong/index.html'
p2032
aS'http://lishi.tianqi.com/weichengqu/index.html'
p2033
aS'http://lishi.tianqi.com/wuqi/index.html'
p2034
aS'http://lishi.tianqi.com/wubu/index.html'
p2035
aS'http://lishi.tianqi.com/weinan/index.html'
p2036
aS'http://lishi.tianqi.com/wucheng/index.html'
p2037
aS'http://lishi.tianqi.com/weifang/index.html'
p2038
aS'http://lishi.tianqi.com/weishan/index.html'
p2039
aS'http://lishi.tianqi.com/wenshang/index.html'
p2040
aS'http://lishi.tianqi.com/wudi/index.html'
p2041
aS'http://lishi.tianqi.com/weihai/index.html'
p2042
aS'http://lishi.tianqi.com/wendeng/index.html'
p2043
aS'http://lishi.tianqi.com/wulian/index.html'
p2044
aS'http://lishi.tianqi.com/wulumuqi/index.html'
p2045
aS'http://lishi.tianqi.com/wulumuqimushizhan/index.html'
p2046
aS'http://lishi.tianqi.com/wuerhe/index.html'
p2047
aS'http://lishi.tianqi.com/wushi/index.html'
p2048
aS'http://lishi.tianqi.com/wensu/index.html'
p2049
aS'http://lishi.tianqi.com/wusu/index.html'
p2050
aS'http://lishi.tianqi.com/wuqia/index.html'
p2051
aS'http://lishi.tianqi.com/wenquan/index.html'
p2052
aS'http://lishi.tianqi.com/wulan/index.html'
p2053
aS'http://lishi.tianqi.com/weiyuan/index.html'
p2054
aS'http://lishi.tianqi.com/wuwei/index.html'
p2055
aS'http://lishi.tianqi.com/wushan1/index.html'
p2056
aS'http://lishi.tianqi.com/wudu/index.html'
p2057
aS'http://lishi.tianqi.com/wenxian/index.html'
p2058
aS'http://lishi.tianqi.com/wuzhong/index.html'
p2059
aS'http://lishi.tianqi.com/wenfengqu/index.html'
p2060
aS'http://lishi.tianqi.com/weihui/index.html'
p2061
aS'http://lishi.tianqi.com/weidu/index.html'
p2062
aS'http://lishi.tianqi.com/wugang/index.html'
p2063
aS'http://lishi.tianqi.com/weishi/index.html'
p2064
aS'http://lishi.tianqi.com/wuzhi/index.html'
p2065
aS'http://lishi.tianqi.com/wenxian1/index.html'
p2066
aS'http://lishi.tianqi.com/wuyang/index.html'
p2067
aS'http://lishi.tianqi.com/wuxi1/index.html'
p2068
aS'http://lishi.tianqi.com/wuzhong1/index.html'
p2069
aS'http://lishi.tianqi.com/wujiang/index.html'
p2070
aS'http://lishi.tianqi.com/wujin/index.html'
p2071
aS'http://lishi.tianqi.com/wuhan/index.html'
p2072
aS'http://lishi.tianqi.com/wuxue/index.html'
p2073
aS'http://lishi.tianqi.com/wufeng/index.html'
p2074
aS'http://lishi.tianqi.com/wenling/index.html'
p2075
aS'http://lishi.tianqi.com/wenzhou/index.html'
p2076
aS'http://lishi.tianqi.com/wencheng/index.html'
p2077
aS'http://lishi.tianqi.com/wuyi1/index.html'
p2078
aS'http://lishi.tianqi.com/wuhe/index.html'
p2079
aS'http://lishi.tianqi.com/wuhu/index.html'
p2080
aS'http://lishi.tianqi.com/wuhuxian/index.html'
p2081
aS'http://lishi.tianqi.com/wangjiang/index.html'
p2082
aS'http://lishi.tianqi.com/wuwei1/index.html'
p2083
aS'http://lishi.tianqi.com/wuping/index.html'
p2084
aS'http://lishi.tianqi.com/wuyishan/index.html'
p2085
aS'http://lishi.tianqi.com/wuning/index.html'
p2086
aS'http://lishi.tianqi.com/wuyuan1/index.html'
p2087
aS'http://lishi.tianqi.com/wannian/index.html'
p2088
aS'http://lishi.tianqi.com/wanzai/index.html'
p2089
aS'http://lishi.tianqi.com/wanan/index.html'
p2090
aS'http://lishi.tianqi.com/wangcheng/index.html'
p2091
aS'http://lishi.tianqi.com/wugang1/index.html'
p2092
aS'http://lishi.tianqi.com/wulingyuan/index.html'
p2093
aS'http://lishi.tianqi.com/wudang/index.html'
p2094
aS'http://lishi.tianqi.com/wuchuan1/index.html'
p2095
aS'http://lishi.tianqi.com/wengan/index.html'
p2096
aS'http://lishi.tianqi.com/wanshan/index.html'
p2097
aS'http://lishi.tianqi.com/weining/index.html'
p2098
aS'http://lishi.tianqi.com/wangmo/index.html'
p2099
aS'http://lishi.tianqi.com/wenjiang/index.html'
p2100
aS'http://lishi.tianqi.com/wuhouqu/index.html'
p2101
aS'http://lishi.tianqi.com/wanyuan/index.html'
p2102
aS'http://lishi.tianqi.com/wusheng/index.html'
p2103
aS'http://lishi.tianqi.com/weiyuan1/index.html'
p2104
aS'http://lishi.tianqi.com/wenchuan/index.html'
p2105
aS'http://lishi.tianqi.com/wangcang/index.html'
p2106
aS'http://lishi.tianqi.com/wengyuan/index.html'
p2107
aS'http://lishi.tianqi.com/wujiang1/index.html'
p2108
aS'http://lishi.tianqi.com/wuhua/index.html'
p2109
aS'http://lishi.tianqi.com/wuchuan2/index.html'
p2110
aS'http://lishi.tianqi.com/weishan1/index.html'
p2111
aS'http://lishi.tianqi.com/wenshan/index.html'
p2112
aS'http://lishi.tianqi.com/wuding/index.html'
p2113
aS'http://lishi.tianqi.com/weixin/index.html'
p2114
aS'http://lishi.tianqi.com/weixi/index.html'
p2115
aS'http://lishi.tianqi.com/wuming/index.html'
p2116
aS'http://lishi.tianqi.com/wuxuan/index.html'
p2117
aS'http://lishi.tianqi.com/wuzhou/index.html'
p2118
aS'http://lishi.tianqi.com/weizhoudao/index.html'
p2119
aS'http://lishi.tianqi.com/wenchang/index.html'
p2120
aS'http://lishi.tianqi.com/wanning/index.html'
p2121
aS'http://lishi.tianqi.com/wuzhishan/index.html'
p2122
aS'http://lishi.tianqi.com/xichengqu/index.html'
p2123
aS'http://lishi.tianqi.com/xujiahui/index.html'
p2124
aS'http://lishi.tianqi.com/xiqing/index.html'
p2125
aS'http://lishi.tianqi.com/xiushan/index.html'
p2126
aS'http://lishi.tianqi.com/xunke/index.html'
p2127
aS'http://lishi.tianqi.com/xinlin/index.html'
p2128
aS'http://lishi.tianqi.com/xinmin/index.html'
p2129
aS'http://lishi.tianqi.com/xiuyan/index.html'
p2130
aS'http://lishi.tianqi.com/xinbin/index.html'
p2131
aS'http://lishi.tianqi.com/xifeng/index.html'
p2132
aS'http://lishi.tianqi.com/xinglongtaiqu/index.html'
p2133
aS'http://lishi.tianqi.com/xingcheng/index.html'
p2134
aS'http://lishi.tianqi.com/xilamuren/index.html'
p2135
aS'http://lishi.tianqi.com/xinghe/index.html'
p2136
aS'http://lishi.tianqi.com/xilinhaote/index.html'
p2137
aS'http://lishi.tianqi.com/xiwuqi/index.html'
p2138
aS'http://lishi.tianqi.com/xianghuang/index.html'
p2139
aS'http://lishi.tianqi.com/xiaoergou/index.html'
p2140
aS'http://lishi.tianqi.com/xinzuoqi/index.html'
p2141
aS'http://lishi.tianqi.com/xinyouqi/index.html'
p2142
aS'http://lishi.tianqi.com/xilingaole/index.html'
p2143
aS'http://lishi.tianqi.com/xingtang/index.html'
p2144
aS'http://lishi.tianqi.com/xinji/index.html'
p2145
aS'http://lishi.tianqi.com/xinle/index.html'
p2146
aS'http://lishi.tianqi.com/xinhuaqu/index.html'
p2147
aS'http://lishi.tianqi.com/xushui/index.html'
p2148
aS'http://lishi.tianqi.com/xiongxian/index.html'
p2149
aS'http://lishi.tianqi.com/xinshiqu/index.html'
p2150
aS'http://lishi.tianqi.com/xuanhua/index.html'
p2151
aS'http://lishi.tianqi.com/xuanhuaqu/index.html'
p2152
aS'http://lishi.tianqi.com/xiahuayuanqu/index.html'
p2153
aS'http://lishi.tianqi.com/xinglong/index.html'
p2154
aS'http://lishi.tianqi.com/xianghe/index.html'
p2155
aS'http://lishi.tianqi.com/xianxian/index.html'
p2156
aS'http://lishi.tianqi.com/xingtai/index.html'
p2157
aS'http://lishi.tianqi.com/xinhe/index.html'
p2158
aS'http://lishi.tianqi.com/xiaodianqu/index.html'
p2159
aS'http://lishi.tianqi.com/xiyang/index.html'
p2160
aS'http://lishi.tianqi.com/xiangyuan/index.html'
p2161
aS'http://lishi.tianqi.com/xixian/index.html'
p2162
aS'http://lishi.tianqi.com/xiangfen/index.html'
p2163
aS'http://lishi.tianqi.com/xiangning/index.html'
p2164
aS'http://lishi.tianqi.com/xinjiang/index.html'
p2165
aS'http://lishi.tianqi.com/xiaxian/index.html'
p2166
aS'http://lishi.tianqi.com/xinzhou/index.html'
p2167
aS'http://lishi.tianqi.com/xingxian/index.html'
p2168
aS'http://lishi.tianqi.com/xiaoyi/index.html'
p2169
aS'http://lishi.tianqi.com/xian/index.html'
p2170
aS'http://lishi.tianqi.com/xianyang/index.html'
p2171
aS'http://lishi.tianqi.com/xunyi/index.html'
p2172
aS'http://lishi.tianqi.com/xingping/index.html'
p2173
aS'http://lishi.tianqi.com/xunyang/index.html'
p2174
aS'http://lishi.tianqi.com/xixiang/index.html'
p2175
aS'http://lishi.tianqi.com/xiajin/index.html'
p2176
aS'http://lishi.tianqi.com/xintai/index.html'
p2177
aS'http://lishi.tianqi.com/xuecheng/index.html'
p2178
aS'http://lishi.tianqi.com/xiaoquzi/index.html'
p2179
aS'http://lishi.tianqi.com/xinhe1/index.html'
p2180
aS'http://lishi.tianqi.com/xinyuan/index.html'
p2181
aS'http://lishi.tianqi.com/xietongmen/index.html'
p2182
aS'http://lishi.tianqi.com/xining/index.html'
p2183
aS'http://lishi.tianqi.com/xunhua/index.html'
p2184
aS'http://lishi.tianqi.com/xinghai/index.html'
p2185
aS'http://lishi.tianqi.com/xifeng1/index.html'
p2186
aS'http://lishi.tianqi.com/xihe/index.html'
p2187
aS'http://lishi.tianqi.com/xiahe/index.html'
p2188
aS'http://lishi.tianqi.com/xingqingqu/index.html'
p2189
aS'http://lishi.tianqi.com/xiji/index.html'
p2190
aS'http://lishi.tianqi.com/xingyang/index.html'
p2191
aS'http://lishi.tianqi.com/xinmi/index.html'
p2192
aS'http://lishi.tianqi.com/xinzheng/index.html'
p2193
aS'http://lishi.tianqi.com/xinxiang/index.html'
p2194
aS'http://lishi.tianqi.com/xuchang/index.html'
p2195
aS'http://lishi.tianqi.com/xiangcheng/index.html'
p2196
aS'http://lishi.tianqi.com/xinyang/index.html'
p2197
aS'http://lishi.tianqi.com/xixian1/index.html'
p2198
aS'http://lishi.tianqi.com/xinxian1/index.html'
p2199
aS'http://lishi.tianqi.com/xixia/index.html'
p2200
aS'http://lishi.tianqi.com/xichuan/index.html'
p2201
aS'http://lishi.tianqi.com/xinye/index.html'
p2202
aS'http://lishi.tianqi.com/xinan/index.html'
p2203
aS'http://lishi.tianqi.com/xiayi/index.html'
p2204
aS'http://lishi.tianqi.com/xiuwu/index.html'
p2205
aS'http://lishi.tianqi.com/xunxian/index.html'
p2206
aS'http://lishi.tianqi.com/xihua/index.html'
p2207
aS'http://lishi.tianqi.com/xiangcheng1/index.html'
p2208
aS'http://lishi.tianqi.com/xiping/index.html'
p2209
aS'http://lishi.tianqi.com/xincai/index.html'
p2210
aS'http://lishi.tianqi.com/xishan/index.html'
p2211
aS'http://lishi.tianqi.com/xiangshui/index.html'
p2212
aS'http://lishi.tianqi.com/xuzhou/index.html'
p2213
aS'http://lishi.tianqi.com/xinyi/index.html'
p2214
aS'http://lishi.tianqi.com/xuyi/index.html'
p2215
aS'http://lishi.tianqi.com/xinghua/index.html'
p2216
aS'http://lishi.tianqi.com/xinzhou1/index.html'
p2217
aS'http://lishi.tianqi.com/xiangyang/index.html'
p2218
aS'http://lishi.tianqi.com/xiangzhou1/index.html'
p2219
aS'http://lishi.tianqi.com/xiaogan/index.html'
p2220
aS'http://lishi.tianqi.com/xiaochang/index.html'
p2221
aS'http://lishi.tianqi.com/xishui/index.html'
p2222
aS'http://lishi.tianqi.com/xialu/index.html'
p2223
aS'http://lishi.tianqi.com/xisaishan/index.html'
p2224
aS'http://lishi.tianqi.com/xianning/index.html'
p2225
aS'http://lishi.tianqi.com/xingshan/index.html'
p2226
aS'http://lishi.tianqi.com/xianfeng/index.html'
p2227
aS'http://lishi.tianqi.com/xuanen/index.html'
p2228
aS'http://lishi.tianqi.com/xiantao/index.html'
p2229
aS'http://lishi.tianqi.com/xiaoshan/index.html'
p2230
aS'http://lishi.tianqi.com/xiuzhouqu/index.html'
p2231
aS'http://lishi.tianqi.com/xiangshan/index.html'
p2232
aS'http://lishi.tianqi.com/xinchang/index.html'
p2233
aS'http://lishi.tianqi.com/xianju/index.html'
p2234
aS'http://lishi.tianqi.com/xiaoxian/index.html'
p2235
aS'http://lishi.tianqi.com/xiuning/index.html'
p2236
aS'http://lishi.tianqi.com/xuancheng/index.html'
p2237
aS'http://lishi.tianqi.com/xiamen/index.html'
p2238
aS'http://lishi.tianqi.com/xiapu/index.html'
p2239
aS'http://lishi.tianqi.com/xianyou/index.html'
p2240
aS'http://lishi.tianqi.com/xiuyugang/index.html'
p2241
aS'http://lishi.tianqi.com/xiuyu/index.html'
p2242
aS'http://lishi.tianqi.com/xinjian/index.html'
p2243
aS'http://lishi.tianqi.com/xingzi/index.html'
p2244
aS'http://lishi.tianqi.com/xiushui/index.html'
p2245
aS'http://lishi.tianqi.com/xingan/index.html'
p2246
aS'http://lishi.tianqi.com/xiajiang/index.html'
p2247
aS'http://lishi.tianqi.com/xinfeng/index.html'
p2248
aS'http://lishi.tianqi.com/xunwu/index.html'
p2249
aS'http://lishi.tianqi.com/xingguo/index.html'
p2250
aS'http://lishi.tianqi.com/xiangdong/index.html'
p2251
aS'http://lishi.tianqi.com/xinyu/index.html'
p2252
aS'http://lishi.tianqi.com/xiangtan/index.html'
p2253
aS'http://lishi.tianqi.com/xiangxiang/index.html'
p2254
aS'http://lishi.tianqi.com/xinhua/index.html'
p2255
aS'http://lishi.tianqi.com/xinshao/index.html'
p2256
aS'http://lishi.tianqi.com/xinning/index.html'
p2257
aS'http://lishi.tianqi.com/xiangyin/index.html'
p2258
aS'http://lishi.tianqi.com/xinhuang/index.html'
p2259
aS'http://lishi.tianqi.com/xupu/index.html'
p2260
aS'http://lishi.tianqi.com/xintian/index.html'
p2261
aS'http://lishi.tianqi.com/xifeng2/index.html'
p2262
aS'http://lishi.tianqi.com/xiuwen/index.html'
p2263
aS'http://lishi.tianqi.com/xiaohe/index.html'
p2264
aS'http://lishi.tianqi.com/xishui1/index.html'
p2265
aS'http://lishi.tianqi.com/xingyi1/index.html'
p2266
aS'http://lishi.tianqi.com/xingren/index.html'
p2267
aS'http://lishi.tianqi.com/xindu/index.html'
p2268
aS'http://lishi.tianqi.com/xinjin/index.html'
p2269
aS'http://lishi.tianqi.com/xichong/index.html'
p2270
aS'http://lishi.tianqi.com/xuanhan/index.html'
p2271
aS'http://lishi.tianqi.com/xuyong/index.html'
p2272
aS'http://lishi.tianqi.com/xingwen/index.html'
p2273
aS'http://lishi.tianqi.com/xichang/index.html'
p2274
aS'http://lishi.tianqi.com/xide/index.html'
p2275
aS'http://lishi.tianqi.com/xinlong/index.html'
p2276
aS'http://lishi.tianqi.com/xiangcheng2/index.html'
p2277
aS'http://lishi.tianqi.com/xiaojin/index.html'
p2278
aS'http://lishi.tianqi.com/xinfeng1/index.html'
p2279
aS'http://lishi.tianqi.com/xingning/index.html'
p2280
aS'http://lishi.tianqi.com/xuwen/index.html'
p2281
aS'http://lishi.tianqi.com/xiashan/index.html'
p2282
aS'http://lishi.tianqi.com/xinhui/index.html'
p2283
aS'http://lishi.tianqi.com/xinxing/index.html'
p2284
aS'http://lishi.tianqi.com/xinyi1/index.html'
p2285
aS'http://lishi.tianqi.com/xundian/index.html'
p2286
aS'http://lishi.tianqi.com/xishanqu/index.html'
p2287
aS'http://lishi.tianqi.com/xiangyun/index.html'
p2288
aS'http://lishi.tianqi.com/xuanwei/index.html'
p2289
aS'http://lishi.tianqi.com/xichou/index.html'
p2290
aS'http://lishi.tianqi.com/xinping/index.html'
p2291
aS'http://lishi.tianqi.com/ximeng/index.html'
p2292
aS'http://lishi.tianqi.com/xianggelila/index.html'
p2293
aS'http://lishi.tianqi.com/xicheng/index.html'
p2294
aS'http://lishi.tianqi.com/xiangzhou/index.html'
p2295
aS'http://lishi.tianqi.com/xingan1/index.html'
p2296
aS'http://lishi.tianqi.com/xingye/index.html'
p2297
aS'http://lishi.tianqi.com/xilin/index.html'
p2298
aS'http://lishi.tianqi.com/xiuying/index.html'
p2299
aS'http://lishi.tianqi.com/xisha/index.html'
p2300
aS'http://lishi.tianqi.com/xinjie/index.html'
p2301
aS'http://lishi.tianqi.com/xinzhu/index.html'
p2302
aS'http://lishi.tianqi.com/xinbei/index.html'
p2303
aS'http://lishi.tianqi.com/xiangzhouqu/index.html'
p2304
aS'http://lishi.tianqi.com/yanqing/index.html'
p2305
aS'http://lishi.tianqi.com/yongchuan/index.html'
p2306
aS'http://lishi.tianqi.com/yubei/index.html'
p2307
aS'http://lishi.tianqi.com/yunyang/index.html'
p2308
aS'http://lishi.tianqi.com/youyang/index.html'
p2309
aS'http://lishi.tianqi.com/yilan/index.html'
p2310
aS'http://lishi.tianqi.com/yanshou/index.html'
p2311
aS'http://lishi.tianqi.com/yian/index.html'
p2312
aS'http://lishi.tianqi.com/yichun/index.html'
p2313
aS'http://lishi.tianqi.com/youyi/index.html'
p2314
aS'http://lishi.tianqi.com/yushu/index.html'
p2315
aS'http://lishi.tianqi.com/yongji/index.html'
p2316
aS'http://lishi.tianqi.com/yanji/index.html'
p2317
aS'http://lishi.tianqi.com/yitong/index.html'
p2318
aS'http://lishi.tianqi.com/yixian/index.html'
p2319
aS'http://lishi.tianqi.com/yingkou/index.html'
p2320
aS'http://lishi.tianqi.com/yizhouqu/index.html'
p2321
aS'http://lishi.tianqi.com/yuanbaoshanqu/index.html'
p2322
aS'http://lishi.tianqi.com/yikewusu/index.html'
p2323
aS'http://lishi.tianqi.com/yijinhuoluo/index.html'
p2324
aS'http://lishi.tianqi.com/yakeshi/index.html'
p2325
aS'http://lishi.tianqi.com/yabulai/index.html'
p2326
aS'http://lishi.tianqi.com/yuanshi/index.html'
p2327
aS'http://lishi.tianqi.com/yixian1/index.html'
p2328
aS'http://lishi.tianqi.com/yuxian1/index.html'
p2329
aS'http://lishi.tianqi.com/yangyuan/index.html'
p2330
aS'http://lishi.tianqi.com/yutian/index.html'
p2331
aS'http://lishi.tianqi.com/yongqing/index.html'
p2332
aS'http://lishi.tianqi.com/yanshan/index.html'
p2333
aS'http://lishi.tianqi.com/yongnian/index.html'
p2334
aS'http://lishi.tianqi.com/yangqu/index.html'
p2335
aS'http://lishi.tianqi.com/yanggao/index.html'
p2336
aS'http://lishi.tianqi.com/yangquan/index.html'
p2337
aS'http://lishi.tianqi.com/yuxian/index.html'
p2338
aS'http://lishi.tianqi.com/yuci/index.html'
p2339
aS'http://lishi.tianqi.com/yushe/index.html'
p2340
aS'http://lishi.tianqi.com/yangcheng/index.html'
p2341
aS'http://lishi.tianqi.com/yonghe/index.html'
p2342
aS'http://lishi.tianqi.com/yicheng/index.html'
p2343
aS'http://lishi.tianqi.com/yaodu/index.html'
p2344
aS'http://lishi.tianqi.com/yuncheng/index.html'
p2345
aS'http://lishi.tianqi.com/yuanqu/index.html'
p2346
aS'http://lishi.tianqi.com/yongji1/index.html'
p2347
aS'http://lishi.tianqi.com/youyu/index.html'
p2348
aS'http://lishi.tianqi.com/yingxian/index.html'
p2349
aS'http://lishi.tianqi.com/yuanping/index.html'
p2350
aS'http://lishi.tianqi.com/yongshou/index.html'
p2351
aS'http://lishi.tianqi.com/yanan/index.html'
p2352
aS'http://lishi.tianqi.com/yanchang/index.html'
p2353
aS'http://lishi.tianqi.com/yanchuan/index.html'
p2354
aS'http://lishi.tianqi.com/yichuan/index.html'
p2355
aS'http://lishi.tianqi.com/yulin/index.html'
p2356
aS'http://lishi.tianqi.com/yuyang/index.html'
p2357
aS'http://lishi.tianqi.com/yangxian/index.html'
p2358
aS'http://lishi.tianqi.com/yaoxian/index.html'
p2359
aS'http://lishi.tianqi.com/yijun/index.html'
p2360
aS'http://lishi.tianqi.com/yaozhou/index.html'
p2361
aS'http://lishi.tianqi.com/yangling/index.html'
p2362
aS'http://lishi.tianqi.com/yiyuan/index.html'
p2363
aS'http://lishi.tianqi.com/yucheng/index.html'
p2364
aS'http://lishi.tianqi.com/yantai/index.html'
p2365
aS'http://lishi.tianqi.com/yutai/index.html'
p2366
aS'http://lishi.tianqi.com/yanzhou/index.html'
p2367
aS'http://lishi.tianqi.com/yinan/index.html'
p2368
aS'http://lishi.tianqi.com/yishui/index.html'
p2369
aS'http://lishi.tianqi.com/yuncheng1/index.html'
p2370
aS'http://lishi.tianqi.com/yangxin/index.html'
p2371
aS'http://lishi.tianqi.com/yicheng1/index.html'
p2372
aS'http://lishi.tianqi.com/yanggu/index.html'
p2373
aS'http://lishi.tianqi.com/yuli/index.html'
p2374
aS'http://lishi.tianqi.com/yanqi/index.html'
p2375
aS'http://lishi.tianqi.com/yingjisha/index.html'
p2376
aS'http://lishi.tianqi.com/yecheng/index.html'
p2377
aS'http://lishi.tianqi.com/yuepuhu/index.html'
p2378
aS'http://lishi.tianqi.com/yining/index.html'
p2379
aS'http://lishi.tianqi.com/yiningxian/index.html'
p2380
aS'http://lishi.tianqi.com/yumin/index.html'
p2381
aS'http://lishi.tianqi.com/yiwu/index.html'
p2382
aS'http://lishi.tianqi.com/yutian1/index.html'
p2383
aS'http://lishi.tianqi.com/yadong/index.html'
p2384
aS'http://lishi.tianqi.com/yushu1/index.html'
p2385
aS'http://lishi.tianqi.com/yongdeng/index.html'
p2386
aS'http://lishi.tianqi.com/yuzhong/index.html'
p2387
aS'http://lishi.tianqi.com/yongchang/index.html'
p2388
aS'http://lishi.tianqi.com/yumen/index.html'
p2389
aS'http://lishi.tianqi.com/yongjing/index.html'
p2390
aS'http://lishi.tianqi.com/yinchuan/index.html'
p2391
aS'http://lishi.tianqi.com/yongning/index.html'
p2392
aS'http://lishi.tianqi.com/yanchi/index.html'
p2393
aS'http://lishi.tianqi.com/yuanyang/index.html'
p2394
aS'http://lishi.tianqi.com/yanjin/index.html'
p2395
aS'http://lishi.tianqi.com/yanling/index.html'
p2396
aS'http://lishi.tianqi.com/yuzhou1/index.html'
p2397
aS'http://lishi.tianqi.com/yexian/index.html'
p2398
aS'http://lishi.tianqi.com/yiyang/index.html'
p2399
aS'http://lishi.tianqi.com/yichuan1/index.html'
p2400
aS'http://lishi.tianqi.com/yanshi1/index.html'
p2401
aS'http://lishi.tianqi.com/yucheng1/index.html'
p2402
aS'http://lishi.tianqi.com/yongcheng/index.html'
p2403
aS'http://lishi.tianqi.com/yima/index.html'
p2404
aS'http://lishi.tianqi.com/yixing/index.html'
p2405
aS'http://lishi.tianqi.com/yangzhong/index.html'
p2406
aS'http://lishi.tianqi.com/yangzhou/index.html'
p2407
aS'http://lishi.tianqi.com/yizheng/index.html'
p2408
aS'http://lishi.tianqi.com/yancheng/index.html'
p2409
aS'http://lishi.tianqi.com/yandu/index.html'
p2410
aS'http://lishi.tianqi.com/yicheng2/index.html'
p2411
aS'http://lishi.tianqi.com/yunmeng/index.html'
p2412
aS'http://lishi.tianqi.com/yingcheng/index.html'
p2413
aS'http://lishi.tianqi.com/yingshan/index.html'
p2414
aS'http://lishi.tianqi.com/yangxin1/index.html'
p2415
aS'http://lishi.tianqi.com/yichang/index.html'
p2416
aS'http://lishi.tianqi.com/yuanan/index.html'
p2417
aS'http://lishi.tianqi.com/yichangxian/index.html'
p2418
aS'http://lishi.tianqi.com/yidu/index.html'
p2419
aS'http://lishi.tianqi.com/yiling/index.html'
p2420
aS'http://lishi.tianqi.com/yunxi/index.html'
p2421
aS'http://lishi.tianqi.com/yunxian/index.html'
p2422
aS'http://lishi.tianqi.com/yuhang/index.html'
p2423
aS'http://lishi.tianqi.com/yuyao/index.html'
p2424
aS'http://lishi.tianqi.com/yinzhou/index.html'
p2425
aS'http://lishi.tianqi.com/yuechengqu/index.html'
p2426
aS'http://lishi.tianqi.com/yuhuan/index.html'
p2427
aS'http://lishi.tianqi.com/yueqing/index.html'
p2428
aS'http://lishi.tianqi.com/yongjia/index.html'
p2429
aS'http://lishi.tianqi.com/yunhe/index.html'
p2430
aS'http://lishi.tianqi.com/yiwu1/index.html'
p2431
aS'http://lishi.tianqi.com/yongkang/index.html'
p2432
aS'http://lishi.tianqi.com/yuhuiqu/index.html'
p2433
aS'http://lishi.tianqi.com/yushanqu/index.html'
p2434
aS'http://lishi.tianqi.com/yuexi/index.html'
p2435
aS'http://lishi.tianqi.com/yingshang/index.html'
p2436
aS'http://lishi.tianqi.com/yixian2/index.html'
p2437
aS'http://lishi.tianqi.com/yongtai/index.html'
p2438
aS'http://lishi.tianqi.com/yongchun/index.html'
p2439
aS'http://lishi.tianqi.com/yunxiao/index.html'
p2440
aS'http://lishi.tianqi.com/yongding/index.html'
p2441
aS'http://lishi.tianqi.com/youxi/index.html'
p2442
aS'http://lishi.tianqi.com/yongan/index.html'
p2443
aS'http://lishi.tianqi.com/yongxiu/index.html'
p2444
aS'http://lishi.tianqi.com/yugan/index.html'
p2445
aS'http://lishi.tianqi.com/yiyang2/index.html'
p2446
aS'http://lishi.tianqi.com/yanshan2/index.html'
p2447
aS'http://lishi.tianqi.com/yushan/index.html'
p2448
aS'http://lishi.tianqi.com/yihuang/index.html'
p2449
aS'http://lishi.tianqi.com/yichun1/index.html'
p2450
aS'http://lishi.tianqi.com/yifeng/index.html'
p2451
aS'http://lishi.tianqi.com/yongfeng/index.html'
p2452
aS'http://lishi.tianqi.com/yongxin/index.html'
p2453
aS'http://lishi.tianqi.com/yudu/index.html'
p2454
aS'http://lishi.tianqi.com/yingtan/index.html'
p2455
aS'http://lishi.tianqi.com/yujiang/index.html'
p2456
aS'http://lishi.tianqi.com/youxian/index.html'
p2457
aS'http://lishi.tianqi.com/yanling1/index.html'
p2458
aS'http://lishi.tianqi.com/yizhang/index.html'
p2459
aS'http://lishi.tianqi.com/yongxing/index.html'
p2460
aS'http://lishi.tianqi.com/yiyang1/index.html'
p2461
aS'http://lishi.tianqi.com/yuanjiang/index.html'
p2462
aS'http://lishi.tianqi.com/yueyang/index.html'
p2463
aS'http://lishi.tianqi.com/yongdingqu/index.html'
p2464
aS'http://lishi.tianqi.com/yuanling/index.html'
p2465
aS'http://lishi.tianqi.com/yongzhou/index.html'
p2466
aS'http://lishi.tianqi.com/yongshun/index.html'
p2467
aS'http://lishi.tianqi.com/yunyan/index.html'
p2468
aS'http://lishi.tianqi.com/yuqing/index.html'
p2469
aS'http://lishi.tianqi.com/yuping/index.html'
p2470
aS'http://lishi.tianqi.com/yinjiang/index.html'
p2471
aS'http://lishi.tianqi.com/yanhe/index.html'
p2472
aS'http://lishi.tianqi.com/yanbian1/index.html'
p2473
aS'http://lishi.tianqi.com/yanting/index.html'
p2474
aS'http://lishi.tianqi.com/yingshan1/index.html'
p2475
aS'http://lishi.tianqi.com/yilong/index.html'
p2476
aS'http://lishi.tianqi.com/yuechi/index.html'
p2477
a.